---
triple:          'arm64-apple-darwin'
binary-path:     '/Users/leejiye/Desktop/coding/c++/exhw8/2'
relocations:
  - { offsetInCU: 0x43CC, offset: 0x43CC, size: 0x8, addend: 0x0, symName: __ZNSt3__113__fill_n_trueB8ue170006INS_6vectorIbNS_9allocatorIbEEEEEEvNS_14__bit_iteratorIT_Lb0EXLi0EEEENS6_9size_typeE, symObjAddr: 0x22F0, symBinAddr: 0x1000067F4, symSize: 0x160 }
  - { offsetInCU: 0x4491, offset: 0x4491, size: 0x8, addend: 0x0, symName: __ZNSt3__114__fill_n_falseB8ue170006INS_6vectorIbNS_9allocatorIbEEEEEEvNS_14__bit_iteratorIT_Lb0EXLi0EEEENS6_9size_typeE, symObjAddr: 0x2450, symBinAddr: 0x100006954, symSize: 0x15C }
  - { offsetInCU: 0x4556, offset: 0x4556, size: 0x8, addend: 0x0, symName: __ZNSt3__124__put_character_sequenceB8ue170006IcNS_11char_traitsIcEEEERNS_13basic_ostreamIT_T0_EES7_PKS4_m, symObjAddr: 0x27C4, symBinAddr: 0x100006CC8, symSize: 0x1F4 }
  - { offsetInCU: 0x60CA, offset: 0x60CA, size: 0x8, addend: 0x0, symName: __ZNSt3__1lsB8ue170006INS_11char_traitsIcEEEERNS_13basic_ostreamIcT_EES6_PKc, symObjAddr: 0x794, symBinAddr: 0x100004C98, symSize: 0x48 }
  - { offsetInCU: 0x6110, offset: 0x6110, size: 0x8, addend: 0x0, symName: __ZNSt3__119__allocate_at_leastB8ue170006INS_9allocatorImEEEENS_19__allocation_resultINS_16allocator_traitsIT_E7pointerEEERS5_m, symObjAddr: 0xDE4, symBinAddr: 0x1000052E8, symSize: 0x40 }
  - { offsetInCU: 0x6153, offset: 0x6153, size: 0x8, addend: 0x0, symName: __ZNSt3__130__libcpp_is_constant_evaluatedB8ue170006Ev, symObjAddr: 0xE98, symBinAddr: 0x10000539C, symSize: 0xC }
  - { offsetInCU: 0x6195, offset: 0x6195, size: 0x8, addend: 0x0, symName: __ZNSt3__114__construct_atB8ue170006ImJEPmEEPT_S3_DpOT0_, symObjAddr: 0xEA4, symBinAddr: 0x1000053A8, symSize: 0x20 }
  - { offsetInCU: 0x61F1, offset: 0x61F1, size: 0x8, addend: 0x0, symName: __ZNSt3__112__to_addressB8ue170006ImEEPT_S2_, symObjAddr: 0xEC4, symBinAddr: 0x1000053C8, symSize: 0x14 }
  - { offsetInCU: 0x6428, offset: 0x6428, size: 0x8, addend: 0x0, symName: __ZNSt3__120__throw_length_errorB8ue170006EPKc, symObjAddr: 0xF44, symBinAddr: 0x100005448, symSize: 0x64 }
  - { offsetInCU: 0x6452, offset: 0x6452, size: 0x8, addend: 0x0, symName: __ZNSt3__117__libcpp_allocateB8ue170006Emm, symObjAddr: 0x10E0, symBinAddr: 0x1000055E4, symSize: 0x28 }
  - { offsetInCU: 0x648F, offset: 0x648F, size: 0x8, addend: 0x0, symName: __ZNSt3__121__libcpp_operator_newB8ue170006IJmEEEPvDpT_, symObjAddr: 0x1108, symBinAddr: 0x10000560C, symSize: 0x24 }
  - { offsetInCU: 0x64C8, offset: 0x64C8, size: 0x8, addend: 0x0, symName: __ZNSt3__16__copyB8ue170006INS_17_ClassicAlgPolicyENS_14__bit_iteratorINS_6vectorIbNS_9allocatorIbEEEELb1ELm0EEES7_NS2_IS6_Lb0ELm0EEEEENS_4pairIT0_T2_EESA_T1_SB_, symObjAddr: 0x119C, symBinAddr: 0x1000056A0, symSize: 0x7C }
  - { offsetInCU: 0x6535, offset: 0x6535, size: 0x8, addend: 0x0, symName: __ZNSt3__123__dispatch_copy_or_moveB8ue170006INS_17_ClassicAlgPolicyENS_11__copy_loopIS1_EENS_14__copy_trivialENS_14__bit_iteratorINS_6vectorIbNS_9allocatorIbEEEELb1ELm0EEESA_NS5_IS9_Lb0ELm0EEEEENS_4pairIT2_T4_EESD_T3_SE_, symObjAddr: 0x127C, symBinAddr: 0x100005780, symSize: 0x7C }
  - { offsetInCU: 0x65B4, offset: 0x65B4, size: 0x8, addend: 0x0, symName: __ZNSt3__121__unwrap_and_dispatchB8ue170006INS_10__overloadINS_11__copy_loopINS_17_ClassicAlgPolicyEEENS_14__copy_trivialEEENS_14__bit_iteratorINS_6vectorIbNS_9allocatorIbEEEELb1ELm0EEESC_NS7_ISB_Lb0ELm0EEELi0EEENS_4pairIT0_T2_EESF_T1_SG_, symObjAddr: 0x132C, symBinAddr: 0x100005830, symSize: 0x150 }
  - { offsetInCU: 0x6645, offset: 0x6645, size: 0x8, addend: 0x0, symName: __ZNSt3__114__unwrap_rangeB8ue170006INS_14__bit_iteratorINS_6vectorIbNS_9allocatorIbEEEELb1ELm0EEES6_EENS_4pairIT0_S8_EET_SA_, symObjAddr: 0x147C, symBinAddr: 0x100005980, symSize: 0x84 }
  - { offsetInCU: 0x6799, offset: 0x6799, size: 0x8, addend: 0x0, symName: __ZNSt3__113__unwrap_iterB8ue170006INS_14__bit_iteratorINS_6vectorIbNS_9allocatorIbEEEELb0ELm0EEENS_18__unwrap_iter_implIS6_Lb0EEELi0EEEDTclsrT0_8__unwrapclsr3stdE7declvalIT_EEEESA_, symObjAddr: 0x15C4, symBinAddr: 0x100005AC8, symSize: 0x44 }
  - { offsetInCU: 0x67DE, offset: 0x67DE, size: 0x8, addend: 0x0, symName: __ZNSt3__19make_pairB8ue170006INS_14__bit_iteratorINS_6vectorIbNS_9allocatorIbEEEELb1ELm0EEENS1_IS5_Lb0ELm0EEEEENS_4pairINS_18__unwrap_ref_decayIT_E4typeENS9_IT0_E4typeEEEOSA_OSD_, symObjAddr: 0x1608, symBinAddr: 0x100005B0C, symSize: 0x40 }
  - { offsetInCU: 0x682D, offset: 0x682D, size: 0x8, addend: 0x0, symName: __ZNSt3__114__rewrap_rangeB8ue170006INS_14__bit_iteratorINS_6vectorIbNS_9allocatorIbEEEELb1ELm0EEES6_EET_S7_T0_, symObjAddr: 0x1648, symBinAddr: 0x100005B4C, symSize: 0x5C }
  - { offsetInCU: 0x6879, offset: 0x6879, size: 0x8, addend: 0x0, symName: __ZNSt3__113__rewrap_iterB8ue170006INS_14__bit_iteratorINS_6vectorIbNS_9allocatorIbEEEELb0ELm0EEES6_NS_18__unwrap_iter_implIS6_Lb0EEEEET_S9_T0_, symObjAddr: 0x16A4, symBinAddr: 0x100005BA8, symSize: 0x88 }
  - { offsetInCU: 0x68D0, offset: 0x68D0, size: 0x8, addend: 0x0, symName: __ZNSt3__19make_pairB8ue170006INS_14__bit_iteratorINS_6vectorIbNS_9allocatorIbEEEELb1ELm0EEES6_EENS_4pairINS_18__unwrap_ref_decayIT_E4typeENS8_IT0_E4typeEEEOS9_OSC_, symObjAddr: 0x172C, symBinAddr: 0x100005C30, symSize: 0x38 }
  - { offsetInCU: 0x691F, offset: 0x691F, size: 0x8, addend: 0x0, symName: __ZNSt3__113__unwrap_iterB8ue170006INS_14__bit_iteratorINS_6vectorIbNS_9allocatorIbEEEELb1ELm0EEENS_18__unwrap_iter_implIS6_Lb0EEELi0EEEDTclsrT0_8__unwrapclsr3stdE7declvalIT_EEEESA_, symObjAddr: 0x1764, symBinAddr: 0x100005C68, symSize: 0x44 }
  - { offsetInCU: 0x6A58, offset: 0x6A58, size: 0x8, addend: 0x0, symName: __ZNSt3__1neB8ue170006ERKNS_14__bit_iteratorINS_6vectorIbNS_9allocatorIbEEEELb1ELm0EEES7_, symObjAddr: 0x183C, symBinAddr: 0x100005D40, symSize: 0x34 }
  - { offsetInCU: 0x6A95, offset: 0x6A95, size: 0x8, addend: 0x0, symName: __ZNSt3__1eqB8ue170006ERKNS_14__bit_iteratorINS_6vectorIbNS_9allocatorIbEEEELb1ELm0EEES7_, symObjAddr: 0x19DC, symBinAddr: 0x100005EE0, symSize: 0x64 }
  - { offsetInCU: 0x6B1A, offset: 0x6B1A, size: 0x8, addend: 0x0, symName: __ZNSt3__113__rewrap_iterB8ue170006INS_14__bit_iteratorINS_6vectorIbNS_9allocatorIbEEEELb1ELm0EEES6_NS_18__unwrap_iter_implIS6_Lb0EEEEET_S9_T0_, symObjAddr: 0x1B64, symBinAddr: 0x100006068, symSize: 0x88 }
  - { offsetInCU: 0x6B6F, offset: 0x6B6F, size: 0x8, addend: 0x0, symName: __ZNSt3__119__libcpp_deallocateB8ue170006EPvmm, symObjAddr: 0x1F60, symBinAddr: 0x100006464, symSize: 0x30 }
  - { offsetInCU: 0x6BB7, offset: 0x6BB7, size: 0x8, addend: 0x0, symName: __ZNSt3__127__do_deallocate_handle_sizeB8ue170006IJEEEvPvmDpT_, symObjAddr: 0x1F90, symBinAddr: 0x100006494, symSize: 0x28 }
  - { offsetInCU: 0x6BF5, offset: 0x6BF5, size: 0x8, addend: 0x0, symName: __ZNSt3__124__libcpp_operator_deleteB8ue170006IJPvEEEvDpT_, symObjAddr: 0x1FB8, symBinAddr: 0x1000064BC, symSize: 0x24 }
  - { offsetInCU: 0x6C2A, offset: 0x6C2A, size: 0x8, addend: 0x0, symName: __ZNSt3__16fill_nB8ue170006INS_6vectorIbNS_9allocatorIbEEEEEEvNS_14__bit_iteratorIT_Lb0EXLi0EEEENS6_9size_typeEb, symObjAddr: 0x225C, symBinAddr: 0x100006760, symSize: 0x94 }
  - { offsetInCU: 0x6C7C, offset: 0x6C7C, size: 0x8, addend: 0x0, symName: __ZNSt3__13minB8ue170006ImEERKT_S3_S3_, symObjAddr: 0x25AC, symBinAddr: 0x100006AB0, symSize: 0x2C }
  - { offsetInCU: 0x6CBF, offset: 0x6CBF, size: 0x8, addend: 0x0, symName: __ZNSt3__16fill_nB8ue170006IPmmmEET_S2_T0_RKT1_, symObjAddr: 0x25D8, symBinAddr: 0x100006ADC, symSize: 0x44 }
  - { offsetInCU: 0x6D22, offset: 0x6D22, size: 0x8, addend: 0x0, symName: __ZNSt3__13minB8ue170006ImNS_6__lessIvvEEEERKT_S5_S5_T0_, symObjAddr: 0x261C, symBinAddr: 0x100006B20, symSize: 0x54 }
  - { offsetInCU: 0x6DC1, offset: 0x6DC1, size: 0x8, addend: 0x0, symName: __ZNSt3__18__fill_nB8ue170006IPmmmEET_S2_T0_RKT1_, symObjAddr: 0x26A4, symBinAddr: 0x100006BA8, symSize: 0x64 }
  - { offsetInCU: 0x6E24, offset: 0x6E24, size: 0x8, addend: 0x0, symName: __ZNSt3__121__convert_to_integralB8ue170006Em, symObjAddr: 0x2708, symBinAddr: 0x100006C0C, symSize: 0x14 }
  - { offsetInCU: 0x6E50, offset: 0x6E50, size: 0x8, addend: 0x0, symName: __ZNSt3__16fill_nB8ue170006IPmmiEET_S2_T0_RKT1_, symObjAddr: 0x271C, symBinAddr: 0x100006C20, symSize: 0x44 }
  - { offsetInCU: 0x6EB3, offset: 0x6EB3, size: 0x8, addend: 0x0, symName: __ZNSt3__18__fill_nB8ue170006IPmmiEET_S2_T0_RKT1_, symObjAddr: 0x2760, symBinAddr: 0x100006C64, symSize: 0x64 }
  - { offsetInCU: 0x6F16, offset: 0x6F16, size: 0x8, addend: 0x0, symName: __ZNSt3__116__pad_and_outputB8ue170006IcNS_11char_traitsIcEEEENS_19ostreambuf_iteratorIT_T0_EES6_PKS4_S8_S8_RNS_8ios_baseES4_, symObjAddr: 0x2A1C, symBinAddr: 0x100006F20, symSize: 0x248 }
  - { offsetInCU: 0x6FE5, offset: 0x6FE5, size: 0x8, addend: 0x0, symName: __ZNSt3__112__to_addressB8ue170006IKcEEPT_S3_, symObjAddr: 0x2F8C, symBinAddr: 0x100007490, symSize: 0x14 }
  - { offsetInCU: 0x704D, offset: 0x704D, size: 0x8, addend: 0x0, symName: __ZNSt3__19use_facetB8ue170006INS_5ctypeIcEEEERKT_RKNS_6localeE, symObjAddr: 0x3264, symBinAddr: 0x100007768, symSize: 0x2C }
  - { offsetInCU: 0x751A, offset: 0x751A, size: 0x8, addend: 0x0, symName: __ZNSt3__118__constexpr_strlenB8ue170006EPKc, symObjAddr: 0x32FC, symBinAddr: 0x100007800, symSize: 0x24 }
  - { offsetInCU: 0x771D, offset: 0x771D, size: 0x8, addend: 0x0, symName: __ZSt28__throw_bad_array_new_lengthB8ue170006v, symObjAddr: 0x10AC, symBinAddr: 0x1000055B0, symSize: 0x34 }
  - { offsetInCU: 0x9F4F, offset: 0x9F4F, size: 0x8, addend: 0x0, symName: __Z5closeNSt3__16vectorIbNS_9allocatorIbEEEEi, symObjAddr: 0x0, symBinAddr: 0x100004504, symSize: 0x37C }
  - { offsetInCU: 0xA00A, offset: 0xA00A, size: 0x8, addend: 0x0, symName: __ZNSt3__16vectorIbNS_9allocatorIbEEEixB8ue170006Em, symObjAddr: 0x37C, symBinAddr: 0x100004880, symSize: 0x3C }
  - { offsetInCU: 0xA03F, offset: 0xA03F, size: 0x8, addend: 0x0, symName: __ZNSt3__115__bit_referenceINS_6vectorIbNS_9allocatorIbEEEELb1EEaSB8ue170006Eb, symObjAddr: 0x3B8, symBinAddr: 0x1000048BC, symSize: 0x6C }
  - { offsetInCU: 0xA073, offset: 0xA073, size: 0x8, addend: 0x0, symName: __ZNKSt3__16vectorIbNS_9allocatorIbEEE4sizeB8ue170006Ev, symObjAddr: 0x424, symBinAddr: 0x100004928, symSize: 0x18 }
  - { offsetInCU: 0xA099, offset: 0xA099, size: 0x8, addend: 0x0, symName: __ZNKSt3__115__bit_referenceINS_6vectorIbNS_9allocatorIbEEEELb1EEcvbB8ue170006Ev, symObjAddr: 0x43C, symBinAddr: 0x100004940, symSize: 0x2C }
  - { offsetInCU: 0xA0BE, offset: 0xA0BE, size: 0x8, addend: 0x0, symName: __Z4findiiNSt3__16vectorIbNS_9allocatorIbEEEE, symObjAddr: 0x468, symBinAddr: 0x10000496C, symSize: 0x124 }
  - { offsetInCU: 0xA108, offset: 0xA108, size: 0x8, addend: 0x0, symName: __ZNSt3__16vectorIbNS_9allocatorIbEEEC1ERKS3_, symObjAddr: 0x58C, symBinAddr: 0x100004A90, symSize: 0x34 }
  - { offsetInCU: 0xA143, offset: 0xA143, size: 0x8, addend: 0x0, symName: __ZNSt3__16vectorIbNS_9allocatorIbEEED1B8ue170006Ev, symObjAddr: 0x5C0, symBinAddr: 0x100004AC4, symSize: 0x2C }
  - { offsetInCU: 0xA16D, offset: 0xA16D, size: 0x8, addend: 0x0, symName: _main, symObjAddr: 0x5F8, symBinAddr: 0x100004AFC, symSize: 0x160 }
  - { offsetInCU: 0xA1B8, offset: 0xA1B8, size: 0x8, addend: 0x0, symName: __ZNSt3__16vectorIbNS_9allocatorIbEEEC1EmRKb, symObjAddr: 0x758, symBinAddr: 0x100004C5C, symSize: 0x3C }
  - { offsetInCU: 0xA202, offset: 0xA202, size: 0x8, addend: 0x0, symName: __ZNSt3__16vectorIbNS_9allocatorIbEEE10__make_refB8ue170006Em, symObjAddr: 0x7DC, symBinAddr: 0x100004CE0, symSize: 0x60 }
  - { offsetInCU: 0xA237, offset: 0xA237, size: 0x8, addend: 0x0, symName: __ZNSt3__115__bit_referenceINS_6vectorIbNS_9allocatorIbEEEELb1EEC1B8ue170006EPmm, symObjAddr: 0x83C, symBinAddr: 0x100004D40, symSize: 0x3C }
  - { offsetInCU: 0xA27D, offset: 0xA27D, size: 0x8, addend: 0x0, symName: __ZNSt3__115__bit_referenceINS_6vectorIbNS_9allocatorIbEEEELb1EEC2B8ue170006EPmm, symObjAddr: 0x878, symBinAddr: 0x100004D7C, symSize: 0x2C }
  - { offsetInCU: 0xA2C3, offset: 0xA2C3, size: 0x8, addend: 0x0, symName: __ZNSt3__16vectorIbNS_9allocatorIbEEEC2ERKS3_, symObjAddr: 0x8A4, symBinAddr: 0x100004DA8, symSize: 0xDC }
  - { offsetInCU: 0xA308, offset: 0xA308, size: 0x8, addend: 0x0, symName: __ZNSt3__116allocator_traitsINS_9allocatorImEEE37select_on_container_copy_constructionB8ue170006IS2_vvEES2_RKS2_, symObjAddr: 0x980, symBinAddr: 0x100004E84, symSize: 0x10 }
  - { offsetInCU: 0xA337, offset: 0xA337, size: 0x8, addend: 0x0, symName: __ZNKSt3__16vectorIbNS_9allocatorIbEEE7__allocB8ue170006Ev, symObjAddr: 0x990, symBinAddr: 0x100004E94, symSize: 0x28 }
  - { offsetInCU: 0xA367, offset: 0xA367, size: 0x8, addend: 0x0, symName: __ZNSt3__117__compressed_pairImNS_9allocatorImEEEC1B8ue170006IiS2_EEOT_OT0_, symObjAddr: 0x9B8, symBinAddr: 0x100004EBC, symSize: 0x3C }
  - { offsetInCU: 0xA3BF, offset: 0xA3BF, size: 0x8, addend: 0x0, symName: __ZNSt3__16vectorIbNS_9allocatorIbEEE11__vallocateB8ue170006Em, symObjAddr: 0x9F4, symBinAddr: 0x100004EF8, symSize: 0x10C }
  - { offsetInCU: 0xA420, offset: 0xA420, size: 0x8, addend: 0x0, symName: __ZNSt3__16vectorIbNS_9allocatorIbEEE18__construct_at_endINS_14__bit_iteratorIS3_Lb1ELm0EEES6_EEvT_T0_m, symObjAddr: 0xB00, symBinAddr: 0x100005004, symSize: 0x124 }
  - { offsetInCU: 0xA496, offset: 0xA496, size: 0x8, addend: 0x0, symName: __ZNKSt3__16vectorIbNS_9allocatorIbEEE5beginB8ue170006Ev, symObjAddr: 0xC24, symBinAddr: 0x100005128, symSize: 0x38 }
  - { offsetInCU: 0xA4BC, offset: 0xA4BC, size: 0x8, addend: 0x0, symName: __ZNKSt3__16vectorIbNS_9allocatorIbEEE3endB8ue170006Ev, symObjAddr: 0xC5C, symBinAddr: 0x100005160, symSize: 0x38 }
  - { offsetInCU: 0xA4E2, offset: 0xA4E2, size: 0x8, addend: 0x0, symName: __ZNKSt3__117__compressed_pairImNS_9allocatorImEEE6secondB8ue170006Ev, symObjAddr: 0xC94, symBinAddr: 0x100005198, symSize: 0x24 }
  - { offsetInCU: 0xA508, offset: 0xA508, size: 0x8, addend: 0x0, symName: __ZNKSt3__122__compressed_pair_elemINS_9allocatorImEELi1ELb1EE5__getB8ue170006Ev, symObjAddr: 0xCB8, symBinAddr: 0x1000051BC, symSize: 0x14 }
  - { offsetInCU: 0xA52E, offset: 0xA52E, size: 0x8, addend: 0x0, symName: __ZNSt3__117__compressed_pairImNS_9allocatorImEEEC2B8ue170006IiS2_EEOT_OT0_, symObjAddr: 0xCCC, symBinAddr: 0x1000051D0, symSize: 0x44 }
  - { offsetInCU: 0xA586, offset: 0xA586, size: 0x8, addend: 0x0, symName: __ZNSt3__122__compressed_pair_elemImLi0ELb0EEC2B8ue170006IivEEOT_, symObjAddr: 0xD10, symBinAddr: 0x100005214, symSize: 0x24 }
  - { offsetInCU: 0xA5C8, offset: 0xA5C8, size: 0x8, addend: 0x0, symName: __ZNSt3__122__compressed_pair_elemINS_9allocatorImEELi1ELb1EEC2B8ue170006IS2_vEEOT_, symObjAddr: 0xD34, symBinAddr: 0x100005238, symSize: 0x18 }
  - { offsetInCU: 0xA60A, offset: 0xA60A, size: 0x8, addend: 0x0, symName: __ZNKSt3__16vectorIbNS_9allocatorIbEEE8max_sizeEv, symObjAddr: 0xD4C, symBinAddr: 0x100005250, symSize: 0x7C }
  - { offsetInCU: 0xA650, offset: 0xA650, size: 0x8, addend: 0x0, symName: __ZNKSt3__16vectorIbNS_9allocatorIbEEE20__throw_length_errorB8ue170006Ev, symObjAddr: 0xDC8, symBinAddr: 0x1000052CC, symSize: 0x1C }
  - { offsetInCU: 0xA676, offset: 0xA676, size: 0x8, addend: 0x0, symName: __ZNSt3__16vectorIbNS_9allocatorIbEEE7__allocB8ue170006Ev, symObjAddr: 0xE24, symBinAddr: 0x100005328, symSize: 0x28 }
  - { offsetInCU: 0xA69C, offset: 0xA69C, size: 0x8, addend: 0x0, symName: __ZNSt3__16vectorIbNS_9allocatorIbEEE26__external_cap_to_internalB8ue170006Em, symObjAddr: 0xE4C, symBinAddr: 0x100005350, symSize: 0x24 }
  - { offsetInCU: 0xA6C0, offset: 0xA6C0, size: 0x8, addend: 0x0, symName: __ZNSt3__16vectorIbNS_9allocatorIbEEE5__capB8ue170006Ev, symObjAddr: 0xE70, symBinAddr: 0x100005374, symSize: 0x28 }
  - { offsetInCU: 0xA6E6, offset: 0xA6E6, size: 0x8, addend: 0x0, symName: __ZNSt3__116allocator_traitsINS_9allocatorImEEE8max_sizeB8ue170006IS2_vEEmRKS2_, symObjAddr: 0xED8, symBinAddr: 0x1000053DC, symSize: 0x24 }
  - { offsetInCU: 0xA714, offset: 0xA714, size: 0x8, addend: 0x0, symName: __ZNSt3__114numeric_limitsImE3maxB8ue170006Ev, symObjAddr: 0xEFC, symBinAddr: 0x100005400, symSize: 0x14 }
  - { offsetInCU: 0xA728, offset: 0xA728, size: 0x8, addend: 0x0, symName: __ZNSt3__16vectorIbNS_9allocatorIbEEE26__internal_cap_to_externalB8ue170006Em, symObjAddr: 0xF10, symBinAddr: 0x100005414, symSize: 0x18 }
  - { offsetInCU: 0xA74C, offset: 0xA74C, size: 0x8, addend: 0x0, symName: __ZNKSt3__19allocatorImE8max_sizeB8ue170006Ev, symObjAddr: 0xF28, symBinAddr: 0x10000542C, symSize: 0x14 }
  - { offsetInCU: 0xA772, offset: 0xA772, size: 0x8, addend: 0x0, symName: __ZNSt3__123__libcpp_numeric_limitsImLb1EE3maxB8ue170006Ev, symObjAddr: 0xF3C, symBinAddr: 0x100005440, symSize: 0x8 }
  - { offsetInCU: 0xA786, offset: 0xA786, size: 0x8, addend: 0x0, symName: __ZNSt12length_errorC1B8ue170006EPKc, symObjAddr: 0xFA8, symBinAddr: 0x1000054AC, symSize: 0x34 }
  - { offsetInCU: 0xA7BE, offset: 0xA7BE, size: 0x8, addend: 0x0, symName: __ZNSt12length_errorC2B8ue170006EPKc, symObjAddr: 0xFDC, symBinAddr: 0x1000054E0, symSize: 0x4C }
  - { offsetInCU: 0xA7F6, offset: 0xA7F6, size: 0x8, addend: 0x0, symName: __ZNSt3__19allocatorImE8allocateB8ue170006Em, symObjAddr: 0x1028, symBinAddr: 0x10000552C, symSize: 0x84 }
  - { offsetInCU: 0xA82A, offset: 0xA82A, size: 0x8, addend: 0x0, symName: __ZNSt3__117__compressed_pairImNS_9allocatorImEEE6secondB8ue170006Ev, symObjAddr: 0x112C, symBinAddr: 0x100005630, symSize: 0x24 }
  - { offsetInCU: 0xA850, offset: 0xA850, size: 0x8, addend: 0x0, symName: __ZNSt3__122__compressed_pair_elemINS_9allocatorImEELi1ELb1EE5__getB8ue170006Ev, symObjAddr: 0x1150, symBinAddr: 0x100005654, symSize: 0x14 }
  - { offsetInCU: 0xA876, offset: 0xA876, size: 0x8, addend: 0x0, symName: __ZNSt3__117__compressed_pairImNS_9allocatorImEEE5firstB8ue170006Ev, symObjAddr: 0x1164, symBinAddr: 0x100005668, symSize: 0x24 }
  - { offsetInCU: 0xA89C, offset: 0xA89C, size: 0x8, addend: 0x0, symName: __ZNSt3__122__compressed_pair_elemImLi0ELb0EE5__getB8ue170006Ev, symObjAddr: 0x1188, symBinAddr: 0x10000568C, symSize: 0x14 }
  - { offsetInCU: 0xA8C2, offset: 0xA8C2, size: 0x8, addend: 0x0, symName: __ZNSt3__16vectorIbNS_9allocatorIbEEE11__make_iterB8ue170006Em, symObjAddr: 0x1218, symBinAddr: 0x10000571C, symSize: 0x64 }
  - { offsetInCU: 0xA8F7, offset: 0xA8F7, size: 0x8, addend: 0x0, symName: __ZNSt3__114__bit_iteratorINS_6vectorIbNS_9allocatorIbEEEELb0ELm0EEC1B8ue170006ERKS5_, symObjAddr: 0x12F8, symBinAddr: 0x1000057FC, symSize: 0x34 }
  - { offsetInCU: 0xA958, offset: 0xA958, size: 0x8, addend: 0x0, symName: __ZNKSt3__111__copy_loopINS_17_ClassicAlgPolicyEEclB8ue170006INS_14__bit_iteratorINS_6vectorIbNS_9allocatorIbEEEELb1ELm0EEES9_NS4_IS8_Lb0ELm0EEEEENS_4pairIT_T1_EESC_T0_SD_, symObjAddr: 0x1500, symBinAddr: 0x100005A04, symSize: 0xC4 }
  - { offsetInCU: 0xA9DD, offset: 0xA9DD, size: 0x8, addend: 0x0, symName: __ZNSt3__14pairINS_14__bit_iteratorINS_6vectorIbNS_9allocatorIbEEEELb1ELm0EEES6_EC1B8ue170006ERKS6_S9_, symObjAddr: 0x17A8, symBinAddr: 0x100005CAC, symSize: 0x3C }
  - { offsetInCU: 0xAA23, offset: 0xAA23, size: 0x8, addend: 0x0, symName: __ZNSt3__14pairINS_14__bit_iteratorINS_6vectorIbNS_9allocatorIbEEEELb1ELm0EEES6_EC2B8ue170006ERKS6_S9_, symObjAddr: 0x17E4, symBinAddr: 0x100005CE8, symSize: 0x34 }
  - { offsetInCU: 0xAA69, offset: 0xAA69, size: 0x8, addend: 0x0, symName: __ZNSt3__118__unwrap_iter_implINS_14__bit_iteratorINS_6vectorIbNS_9allocatorIbEEEELb1ELm0EEELb0EE8__unwrapB8ue170006ES6_, symObjAddr: 0x1818, symBinAddr: 0x100005D1C, symSize: 0x24 }
  - { offsetInCU: 0xAA8C, offset: 0xAA8C, size: 0x8, addend: 0x0, symName: __ZNKSt3__114__bit_iteratorINS_6vectorIbNS_9allocatorIbEEEELb1ELm0EEdeB8ue170006Ev, symObjAddr: 0x1870, symBinAddr: 0x100005D74, symSize: 0x44 }
  - { offsetInCU: 0xAAB2, offset: 0xAAB2, size: 0x8, addend: 0x0, symName: __ZNKSt3__121__bit_const_referenceINS_6vectorIbNS_9allocatorIbEEEEEcvbB8ue170006Ev, symObjAddr: 0x18B4, symBinAddr: 0x100005DB8, symSize: 0x2C }
  - { offsetInCU: 0xAAD8, offset: 0xAAD8, size: 0x8, addend: 0x0, symName: __ZNKSt3__114__bit_iteratorINS_6vectorIbNS_9allocatorIbEEEELb0ELm0EEdeB8ue170006Ev, symObjAddr: 0x18E0, symBinAddr: 0x100005DE4, symSize: 0x44 }
  - { offsetInCU: 0xAAFE, offset: 0xAAFE, size: 0x8, addend: 0x0, symName: __ZNSt3__114__bit_iteratorINS_6vectorIbNS_9allocatorIbEEEELb1ELm0EEppB8ue170006Ev, symObjAddr: 0x1924, symBinAddr: 0x100005E28, symSize: 0x5C }
  - { offsetInCU: 0xAB24, offset: 0xAB24, size: 0x8, addend: 0x0, symName: __ZNSt3__114__bit_iteratorINS_6vectorIbNS_9allocatorIbEEEELb0ELm0EEppB8ue170006Ev, symObjAddr: 0x1980, symBinAddr: 0x100005E84, symSize: 0x5C }
  - { offsetInCU: 0xAB4A, offset: 0xAB4A, size: 0x8, addend: 0x0, symName: __ZNSt3__121__bit_const_referenceINS_6vectorIbNS_9allocatorIbEEEEEC1B8ue170006EPKmm, symObjAddr: 0x1A40, symBinAddr: 0x100005F44, symSize: 0x3C }
  - { offsetInCU: 0xAB90, offset: 0xAB90, size: 0x8, addend: 0x0, symName: __ZNSt3__121__bit_const_referenceINS_6vectorIbNS_9allocatorIbEEEEEC2B8ue170006EPKmm, symObjAddr: 0x1A7C, symBinAddr: 0x100005F80, symSize: 0x2C }
  - { offsetInCU: 0xABD6, offset: 0xABD6, size: 0x8, addend: 0x0, symName: __ZNSt3__118__unwrap_iter_implINS_14__bit_iteratorINS_6vectorIbNS_9allocatorIbEEEELb0ELm0EEELb0EE8__unwrapB8ue170006ES6_, symObjAddr: 0x1AA8, symBinAddr: 0x100005FAC, symSize: 0x38 }
  - { offsetInCU: 0xABFA, offset: 0xABFA, size: 0x8, addend: 0x0, symName: __ZNSt3__14pairINS_14__bit_iteratorINS_6vectorIbNS_9allocatorIbEEEELb1ELm0EEENS1_IS5_Lb0ELm0EEEEC1B8ue170006ERKS6_RKS7_, symObjAddr: 0x1AE0, symBinAddr: 0x100005FE4, symSize: 0x3C }
  - { offsetInCU: 0xAC40, offset: 0xAC40, size: 0x8, addend: 0x0, symName: __ZNSt3__14pairINS_14__bit_iteratorINS_6vectorIbNS_9allocatorIbEEEELb1ELm0EEENS1_IS5_Lb0ELm0EEEEC2B8ue170006ERKS6_RKS7_, symObjAddr: 0x1B1C, symBinAddr: 0x100006020, symSize: 0x48 }
  - { offsetInCU: 0xAC86, offset: 0xAC86, size: 0x8, addend: 0x0, symName: __ZNSt3__118__unwrap_iter_implINS_14__bit_iteratorINS_6vectorIbNS_9allocatorIbEEEELb1ELm0EEELb0EE8__rewrapB8ue170006ES6_S6_, symObjAddr: 0x1BEC, symBinAddr: 0x1000060F0, symSize: 0x2C }
  - { offsetInCU: 0xACB4, offset: 0xACB4, size: 0x8, addend: 0x0, symName: __ZNSt3__118__unwrap_iter_implINS_14__bit_iteratorINS_6vectorIbNS_9allocatorIbEEEELb0ELm0EEELb0EE8__rewrapB8ue170006ES6_S6_, symObjAddr: 0x1C18, symBinAddr: 0x10000611C, symSize: 0x3C }
  - { offsetInCU: 0xACE4, offset: 0xACE4, size: 0x8, addend: 0x0, symName: __ZNSt3__114__bit_iteratorINS_6vectorIbNS_9allocatorIbEEEELb0ELm0EEC2B8ue170006ERKS5_, symObjAddr: 0x1C54, symBinAddr: 0x100006158, symSize: 0x30 }
  - { offsetInCU: 0xAD1D, offset: 0xAD1D, size: 0x8, addend: 0x0, symName: __ZNSt3__114__bit_iteratorINS_6vectorIbNS_9allocatorIbEEEELb0ELm0EEC1B8ue170006EPmj, symObjAddr: 0x1C84, symBinAddr: 0x100006188, symSize: 0x3C }
  - { offsetInCU: 0xAD65, offset: 0xAD65, size: 0x8, addend: 0x0, symName: __ZNSt3__114__bit_iteratorINS_6vectorIbNS_9allocatorIbEEEELb0ELm0EEC2B8ue170006EPmj, symObjAddr: 0x1CC0, symBinAddr: 0x1000061C4, symSize: 0x2C }
  - { offsetInCU: 0xADAD, offset: 0xADAD, size: 0x8, addend: 0x0, symName: __ZNKSt3__16vectorIbNS_9allocatorIbEEE11__make_iterB8ue170006Em, symObjAddr: 0x1CEC, symBinAddr: 0x1000061F0, symSize: 0x5C }
  - { offsetInCU: 0xADE2, offset: 0xADE2, size: 0x8, addend: 0x0, symName: __ZNSt3__114__bit_iteratorINS_6vectorIbNS_9allocatorIbEEEELb1ELm0EEC1B8ue170006EPKmj, symObjAddr: 0x1D48, symBinAddr: 0x10000624C, symSize: 0x3C }
  - { offsetInCU: 0xAE2A, offset: 0xAE2A, size: 0x8, addend: 0x0, symName: __ZNSt3__114__bit_iteratorINS_6vectorIbNS_9allocatorIbEEEELb1ELm0EEC2B8ue170006EPKmj, symObjAddr: 0x1D84, symBinAddr: 0x100006288, symSize: 0x2C }
  - { offsetInCU: 0xAE72, offset: 0xAE72, size: 0x8, addend: 0x0, symName: __ZNSt3__16vectorIbNS_9allocatorIbEEED2B8ue170006Ev, symObjAddr: 0x1DB0, symBinAddr: 0x1000062B4, symSize: 0x3C }
  - { offsetInCU: 0xAE9C, offset: 0xAE9C, size: 0x8, addend: 0x0, symName: __ZNSt3__16vectorIbNS_9allocatorIbEEE16__destroy_vectorC1B8ue170006ERS3_, symObjAddr: 0x1DEC, symBinAddr: 0x1000062F0, symSize: 0x34 }
  - { offsetInCU: 0xAED5, offset: 0xAED5, size: 0x8, addend: 0x0, symName: __ZNSt3__16vectorIbNS_9allocatorIbEEE16__destroy_vectorclB8ue170006Ev, symObjAddr: 0x1E20, symBinAddr: 0x100006324, symSize: 0x7C }
  - { offsetInCU: 0xAEFB, offset: 0xAEFB, size: 0x8, addend: 0x0, symName: __ZNSt3__16vectorIbNS_9allocatorIbEEE16__destroy_vectorC2B8ue170006ERS3_, symObjAddr: 0x1E9C, symBinAddr: 0x1000063A0, symSize: 0x20 }
  - { offsetInCU: 0xAF34, offset: 0xAF34, size: 0x8, addend: 0x0, symName: __ZNSt3__116allocator_traitsINS_9allocatorImEEE10deallocateB8ue170006ERS2_Pmm, symObjAddr: 0x1EBC, symBinAddr: 0x1000063C0, symSize: 0x34 }
  - { offsetInCU: 0xAF76, offset: 0xAF76, size: 0x8, addend: 0x0, symName: __ZNSt3__19allocatorImE10deallocateB8ue170006EPmm, symObjAddr: 0x1EF0, symBinAddr: 0x1000063F4, symSize: 0x70 }
  - { offsetInCU: 0xAFB8, offset: 0xAFB8, size: 0x8, addend: 0x0, symName: __ZNSt3__16vectorIbNS_9allocatorIbEEEC2EmRKb, symObjAddr: 0x1FDC, symBinAddr: 0x1000064E0, symSize: 0x90 }
  - { offsetInCU: 0xB007, offset: 0xB007, size: 0x8, addend: 0x0, symName: __ZNSt3__117__compressed_pairImNS_9allocatorImEEEC1B8ue170006IiNS_18__default_init_tagEEEOT_OT0_, symObjAddr: 0x206C, symBinAddr: 0x100006570, symSize: 0x3C }
  - { offsetInCU: 0xB05F, offset: 0xB05F, size: 0x8, addend: 0x0, symName: __ZNSt3__16vectorIbNS_9allocatorIbEEE18__construct_at_endB8ue170006Emb, symObjAddr: 0x20A8, symBinAddr: 0x1000065AC, symSize: 0x108 }
  - { offsetInCU: 0xB0B4, offset: 0xB0B4, size: 0x8, addend: 0x0, symName: __ZNSt3__117__compressed_pairImNS_9allocatorImEEEC2B8ue170006IiNS_18__default_init_tagEEEOT_OT0_, symObjAddr: 0x21B0, symBinAddr: 0x1000066B4, symSize: 0x40 }
  - { offsetInCU: 0xB10C, offset: 0xB10C, size: 0x8, addend: 0x0, symName: __ZNSt3__122__compressed_pair_elemINS_9allocatorImEELi1ELb1EEC2B8ue170006ENS_18__default_init_tagE, symObjAddr: 0x21F0, symBinAddr: 0x1000066F4, symSize: 0x2C }
  - { offsetInCU: 0xB141, offset: 0xB141, size: 0x8, addend: 0x0, symName: __ZNSt3__19allocatorImEC2B8ue170006Ev, symObjAddr: 0x221C, symBinAddr: 0x100006720, symSize: 0x2C }
  - { offsetInCU: 0xB16B, offset: 0xB16B, size: 0x8, addend: 0x0, symName: __ZNSt3__116__non_trivial_ifILb1ENS_9allocatorImEEEC2B8ue170006Ev, symObjAddr: 0x2248, symBinAddr: 0x10000674C, symSize: 0x14 }
  - { offsetInCU: 0xB19F, offset: 0xB19F, size: 0x8, addend: 0x0, symName: __ZNKSt3__16__lessIvvEclB8ue170006ImmEEbRKT_RKT0_, symObjAddr: 0x2670, symBinAddr: 0x100006B74, symSize: 0x34 }
  - { offsetInCU: 0xB1F3, offset: 0xB1F3, size: 0x8, addend: 0x0, symName: __ZNSt3__111char_traitsIcE6lengthB8ue170006EPKc, symObjAddr: 0x29B8, symBinAddr: 0x100006EBC, symSize: 0x48 }
  - { offsetInCU: 0xB234, offset: 0xB234, size: 0x8, addend: 0x0, symName: __ZNKSt3__113basic_ostreamIcNS_11char_traitsIcEEE6sentrycvbB8ue170006Ev, symObjAddr: 0x2A00, symBinAddr: 0x100006F04, symSize: 0x1C }
  - { offsetInCU: 0xB25A, offset: 0xB25A, size: 0x8, addend: 0x0, symName: __ZNSt3__119ostreambuf_iteratorIcNS_11char_traitsIcEEEC1B8ue170006ERNS_13basic_ostreamIcS2_EE, symObjAddr: 0x2C64, symBinAddr: 0x100007168, symSize: 0x34 }
  - { offsetInCU: 0xB292, offset: 0xB292, size: 0x8, addend: 0x0, symName: __ZNKSt3__18ios_base5flagsB8ue170006Ev, symObjAddr: 0x2C98, symBinAddr: 0x10000719C, symSize: 0x18 }
  - { offsetInCU: 0xB2BA, offset: 0xB2BA, size: 0x8, addend: 0x0, symName: __ZNKSt3__19basic_iosIcNS_11char_traitsIcEEE4fillB8ue170006Ev, symObjAddr: 0x2CB0, symBinAddr: 0x1000071B4, symSize: 0x64 }
  - { offsetInCU: 0xB2E2, offset: 0xB2E2, size: 0x8, addend: 0x0, symName: __ZNKSt3__119ostreambuf_iteratorIcNS_11char_traitsIcEEE6failedB8ue170006Ev, symObjAddr: 0x2D14, symBinAddr: 0x100007218, symSize: 0x24 }
  - { offsetInCU: 0xB308, offset: 0xB308, size: 0x8, addend: 0x0, symName: __ZNSt3__19basic_iosIcNS_11char_traitsIcEEE8setstateB8ue170006Ej, symObjAddr: 0x2D38, symBinAddr: 0x10000723C, symSize: 0x2C }
  - { offsetInCU: 0xB33D, offset: 0xB33D, size: 0x8, addend: 0x0, symName: __ZNKSt3__18ios_base5widthB8ue170006Ev, symObjAddr: 0x2D64, symBinAddr: 0x100007268, symSize: 0x18 }
  - { offsetInCU: 0xB365, offset: 0xB365, size: 0x8, addend: 0x0, symName: __ZNSt3__115basic_streambufIcNS_11char_traitsIcEEE5sputnB8ue170006EPKcl, symObjAddr: 0x2D7C, symBinAddr: 0x100007280, symSize: 0x3C }
  - { offsetInCU: 0xB3A7, offset: 0xB3A7, size: 0x8, addend: 0x0, symName: __ZNSt3__112basic_stringIcNS_11char_traitsIcEENS_9allocatorIcEEEC1B8ue170006Emc, symObjAddr: 0x2DB8, symBinAddr: 0x1000072BC, symSize: 0x3C }
  - { offsetInCU: 0xB3EF, offset: 0xB3EF, size: 0x8, addend: 0x0, symName: __ZNKSt3__112basic_stringIcNS_11char_traitsIcEENS_9allocatorIcEEE4dataB8ue170006Ev, symObjAddr: 0x2DF4, symBinAddr: 0x1000072F8, symSize: 0x28 }
  - { offsetInCU: 0xB415, offset: 0xB415, size: 0x8, addend: 0x0, symName: __ZNSt3__18ios_base5widthB8ue170006El, symObjAddr: 0x2E1C, symBinAddr: 0x100007320, symSize: 0x2C }
  - { offsetInCU: 0xB45B, offset: 0xB45B, size: 0x8, addend: 0x0, symName: __ZNSt3__112basic_stringIcNS_11char_traitsIcEENS_9allocatorIcEEEC2B8ue170006Emc, symObjAddr: 0x2E48, symBinAddr: 0x10000734C, symSize: 0x4C }
  - { offsetInCU: 0xB4A3, offset: 0xB4A3, size: 0x8, addend: 0x0, symName: __ZNSt3__117__compressed_pairINS_12basic_stringIcNS_11char_traitsIcEENS_9allocatorIcEEE5__repES5_EC1B8ue170006INS_18__default_init_tagESA_EEOT_OT0_, symObjAddr: 0x2E94, symBinAddr: 0x100007398, symSize: 0x3C }
  - { offsetInCU: 0xB4FB, offset: 0xB4FB, size: 0x8, addend: 0x0, symName: __ZNSt3__117__compressed_pairINS_12basic_stringIcNS_11char_traitsIcEENS_9allocatorIcEEE5__repES5_EC2B8ue170006INS_18__default_init_tagESA_EEOT_OT0_, symObjAddr: 0x2ED0, symBinAddr: 0x1000073D4, symSize: 0x3C }
  - { offsetInCU: 0xB553, offset: 0xB553, size: 0x8, addend: 0x0, symName: __ZNSt3__122__compressed_pair_elemINS_12basic_stringIcNS_11char_traitsIcEENS_9allocatorIcEEE5__repELi0ELb0EEC2B8ue170006ENS_18__default_init_tagE, symObjAddr: 0x2F0C, symBinAddr: 0x100007410, symSize: 0x14 }
  - { offsetInCU: 0xB588, offset: 0xB588, size: 0x8, addend: 0x0, symName: __ZNSt3__122__compressed_pair_elemINS_9allocatorIcEELi1ELb1EEC2B8ue170006ENS_18__default_init_tagE, symObjAddr: 0x2F20, symBinAddr: 0x100007424, symSize: 0x2C }
  - { offsetInCU: 0xB5BD, offset: 0xB5BD, size: 0x8, addend: 0x0, symName: __ZNSt3__19allocatorIcEC2B8ue170006Ev, symObjAddr: 0x2F4C, symBinAddr: 0x100007450, symSize: 0x2C }
  - { offsetInCU: 0xB5E7, offset: 0xB5E7, size: 0x8, addend: 0x0, symName: __ZNSt3__116__non_trivial_ifILb1ENS_9allocatorIcEEEC2B8ue170006Ev, symObjAddr: 0x2F78, symBinAddr: 0x10000747C, symSize: 0x14 }
  - { offsetInCU: 0xB611, offset: 0xB611, size: 0x8, addend: 0x0, symName: __ZNKSt3__112basic_stringIcNS_11char_traitsIcEENS_9allocatorIcEEE13__get_pointerB8ue170006Ev, symObjAddr: 0x2FA0, symBinAddr: 0x1000074A4, symSize: 0x54 }
  - { offsetInCU: 0xB637, offset: 0xB637, size: 0x8, addend: 0x0, symName: __ZNKSt3__112basic_stringIcNS_11char_traitsIcEENS_9allocatorIcEEE9__is_longB8ue170006Ev, symObjAddr: 0x2FF4, symBinAddr: 0x1000074F8, symSize: 0x74 }
  - { offsetInCU: 0xB65D, offset: 0xB65D, size: 0x8, addend: 0x0, symName: __ZNKSt3__112basic_stringIcNS_11char_traitsIcEENS_9allocatorIcEEE18__get_long_pointerB8ue170006Ev, symObjAddr: 0x3068, symBinAddr: 0x10000756C, symSize: 0x28 }
  - { offsetInCU: 0xB683, offset: 0xB683, size: 0x8, addend: 0x0, symName: __ZNKSt3__112basic_stringIcNS_11char_traitsIcEENS_9allocatorIcEEE19__get_short_pointerB8ue170006Ev, symObjAddr: 0x3090, symBinAddr: 0x100007594, symSize: 0x28 }
  - { offsetInCU: 0xB6A9, offset: 0xB6A9, size: 0x8, addend: 0x0, symName: __ZNKSt3__117__compressed_pairINS_12basic_stringIcNS_11char_traitsIcEENS_9allocatorIcEEE5__repES5_E5firstB8ue170006Ev, symObjAddr: 0x30B8, symBinAddr: 0x1000075BC, symSize: 0x24 }
  - { offsetInCU: 0xB6CF, offset: 0xB6CF, size: 0x8, addend: 0x0, symName: __ZNKSt3__122__compressed_pair_elemINS_12basic_stringIcNS_11char_traitsIcEENS_9allocatorIcEEE5__repELi0ELb0EE5__getB8ue170006Ev, symObjAddr: 0x30DC, symBinAddr: 0x1000075E0, symSize: 0x14 }
  - { offsetInCU: 0xB6F5, offset: 0xB6F5, size: 0x8, addend: 0x0, symName: __ZNSt3__114pointer_traitsIPKcE10pointer_toB8ue170006ERS1_, symObjAddr: 0x30F0, symBinAddr: 0x1000075F4, symSize: 0x14 }
  - { offsetInCU: 0xB718, offset: 0xB718, size: 0x8, addend: 0x0, symName: __ZNSt3__119ostreambuf_iteratorIcNS_11char_traitsIcEEEC2B8ue170006ERNS_13basic_ostreamIcS2_EE, symObjAddr: 0x3104, symBinAddr: 0x100007608, symSize: 0x68 }
  - { offsetInCU: 0xB750, offset: 0xB750, size: 0x8, addend: 0x0, symName: __ZNKSt3__19basic_iosIcNS_11char_traitsIcEEE5rdbufB8ue170006Ev, symObjAddr: 0x316C, symBinAddr: 0x100007670, symSize: 0x24 }
  - { offsetInCU: 0xB778, offset: 0xB778, size: 0x8, addend: 0x0, symName: __ZNKSt3__18ios_base5rdbufB8ue170006Ev, symObjAddr: 0x3190, symBinAddr: 0x100007694, symSize: 0x18 }
  - { offsetInCU: 0xB79E, offset: 0xB79E, size: 0x8, addend: 0x0, symName: __ZNSt3__111char_traitsIcE11eq_int_typeB8ue170006Eii, symObjAddr: 0x31A8, symBinAddr: 0x1000076AC, symSize: 0x28 }
  - { offsetInCU: 0xB7D1, offset: 0xB7D1, size: 0x8, addend: 0x0, symName: __ZNSt3__111char_traitsIcE3eofB8ue170006Ev, symObjAddr: 0x31D0, symBinAddr: 0x1000076D4, symSize: 0x8 }
  - { offsetInCU: 0xB7E5, offset: 0xB7E5, size: 0x8, addend: 0x0, symName: __ZNKSt3__19basic_iosIcNS_11char_traitsIcEEE5widenB8ue170006Ec, symObjAddr: 0x31D8, symBinAddr: 0x1000076DC, symSize: 0x8C }
  - { offsetInCU: 0xB853, offset: 0xB853, size: 0x8, addend: 0x0, symName: __ZNKSt3__15ctypeIcE5widenB8ue170006Ec, symObjAddr: 0x3290, symBinAddr: 0x100007794, symSize: 0x38 }
  - { offsetInCU: 0xB888, offset: 0xB888, size: 0x8, addend: 0x0, symName: __ZNSt3__18ios_base8setstateB8ue170006Ej, symObjAddr: 0x32C8, symBinAddr: 0x1000077CC, symSize: 0x34 }
  - { offsetInCU: 0x39, offset: 0xB9BA, size: 0x8, addend: 0x0, symName: __ZN6Matrix1nE, symObjAddr: 0x3E040, symBinAddr: 0x100014000, symSize: 0x0 }
  - { offsetInCU: 0x30B1, offset: 0xEA32, size: 0x8, addend: 0x0, symName: __ZNSt3__17advanceB8ue170006IPNS_6vectorIdNS_9allocatorIdEEEEllvEEvRT_T0_, symObjAddr: 0x1F08, symBinAddr: 0x100009720, symSize: 0x38 }
  - { offsetInCU: 0x38CB, offset: 0xF24C, size: 0x8, addend: 0x0, symName: __ZNSt3__17advanceB8ue170006IPdllvEEvRT_T0_, symObjAddr: 0x477C, symBinAddr: 0x10000BCF4, symSize: 0x38 }
  - { offsetInCU: 0x4BC7, offset: 0x10548, size: 0x8, addend: 0x0, symName: __ZNSt3__18distanceB8ue170006IPNS_6vectorIdNS_9allocatorIdEEEEEENS_15iterator_traitsIT_E15difference_typeES7_S7_, symObjAddr: 0x1AA8, symBinAddr: 0x1000092C0, symSize: 0x2C }
  - { offsetInCU: 0x4C0A, offset: 0x1058B, size: 0x8, addend: 0x0, symName: __ZNSt3__14nextB8ue170006IPNS_6vectorIdNS_9allocatorIdEEEEEENS_9enable_ifIXsr29__has_input_iterator_categoryIT_EE5valueES7_E4typeES7_NS_15iterator_traitsIS7_E15difference_typeE, symObjAddr: 0x1B14, symBinAddr: 0x10000932C, symSize: 0x34 }
  - { offsetInCU: 0x4C4D, offset: 0x105CE, size: 0x8, addend: 0x0, symName: __ZNSt3__14copyB8ue170006IPNS_6vectorIdNS_9allocatorIdEEEES5_EET0_T_S7_S6_, symObjAddr: 0x1B48, symBinAddr: 0x100009360, symSize: 0x40 }
  - { offsetInCU: 0x4CA7, offset: 0x10628, size: 0x8, addend: 0x0, symName: __ZNSt3__16__copyB8ue170006INS_17_ClassicAlgPolicyEPNS_6vectorIdNS_9allocatorIdEEEES6_S6_EENS_4pairIT0_T2_EES8_T1_S9_, symObjAddr: 0x1C1C, symBinAddr: 0x100009434, symSize: 0x44 }
  - { offsetInCU: 0x4D13, offset: 0x10694, size: 0x8, addend: 0x0, symName: __ZNSt3__121__convert_to_integralB8ue170006El, symObjAddr: 0x1F40, symBinAddr: 0x100009758, symSize: 0x14 }
  - { offsetInCU: 0x4D3F, offset: 0x106C0, size: 0x8, addend: 0x0, symName: __ZNSt3__19__advanceB8ue170006IPNS_6vectorIdNS_9allocatorIdEEEEEEvRT_NS_15iterator_traitsIS6_E15difference_typeENS_26random_access_iterator_tagE, symObjAddr: 0x1F54, symBinAddr: 0x10000976C, symSize: 0x30 }
  - { offsetInCU: 0x4D8A, offset: 0x1070B, size: 0x8, addend: 0x0, symName: __ZNSt3__130__uninitialized_allocator_copyB8ue170006INS_9allocatorINS_6vectorIdNS1_IdEEEEEEPS4_S6_S6_EET2_RT_T0_T1_S7_, symObjAddr: 0x1FC0, symBinAddr: 0x1000097D8, symSize: 0x80 }
  - { offsetInCU: 0x4E27, offset: 0x107A8, size: 0x8, addend: 0x0, symName: __ZNSt3__114__unwrap_rangeB8ue170006IPNS_6vectorIdNS_9allocatorIdEEEES5_EENS_4pairIT0_S7_EET_S9_, symObjAddr: 0x20E0, symBinAddr: 0x1000098F8, symSize: 0x60 }
  - { offsetInCU: 0x4E73, offset: 0x107F4, size: 0x8, addend: 0x0, symName: __ZNSt3__135__uninitialized_allocator_copy_implB8ue170006INS_9allocatorINS_6vectorIdNS1_IdEEEEEEPS4_S6_S6_EET2_RT_T0_T1_S7_, symObjAddr: 0x2140, symBinAddr: 0x100009958, symSize: 0xFC }
  - { offsetInCU: 0x4F11, offset: 0x10892, size: 0x8, addend: 0x0, symName: __ZNSt3__113__unwrap_iterB8ue170006IPNS_6vectorIdNS_9allocatorIdEEEENS_18__unwrap_iter_implIS5_Lb1EEELi0EEEDTclsrT0_8__unwrapclsr3stdE7declvalIT_EEEES9_, symObjAddr: 0x223C, symBinAddr: 0x100009A54, symSize: 0x24 }
  - { offsetInCU: 0x4F55, offset: 0x108D6, size: 0x8, addend: 0x0, symName: __ZNSt3__113__rewrap_iterB8ue170006IPNS_6vectorIdNS_9allocatorIdEEEES5_NS_18__unwrap_iter_implIS5_Lb1EEEEET_S8_T0_, symObjAddr: 0x2260, symBinAddr: 0x100009A78, symSize: 0x50 }
  - { offsetInCU: 0x4FAA, offset: 0x1092B, size: 0x8, addend: 0x0, symName: __ZNSt3__19make_pairB8ue170006IPNS_6vectorIdNS_9allocatorIdEEEES5_EENS_4pairINS_18__unwrap_ref_decayIT_E4typeENS7_IT0_E4typeEEEOS8_OSB_, symObjAddr: 0x22B0, symBinAddr: 0x100009AC8, symSize: 0x38 }
  - { offsetInCU: 0x50A6, offset: 0x10A27, size: 0x8, addend: 0x0, symName: __ZNSt3__122__make_exception_guardB8ue170006INS_29_AllocatorDestroyRangeReverseINS_9allocatorINS_6vectorIdNS2_IdEEEEEEPS5_EEEENS_28__exception_guard_exceptionsIT_EESA_, symObjAddr: 0x2358, symBinAddr: 0x100009B70, symSize: 0x4C }
  - { offsetInCU: 0x50DC, offset: 0x10A5D, size: 0x8, addend: 0x0, symName: __ZNSt3__112__to_addressB8ue170006INS_6vectorIdNS_9allocatorIdEEEEEEPT_S6_, symObjAddr: 0x241C, symBinAddr: 0x100009C34, symSize: 0x14 }
  - { offsetInCU: 0x5111, offset: 0x10A92, size: 0x8, addend: 0x0, symName: __ZNSt3__122__make_exception_guardB8ue170006INS_6vectorIdNS_9allocatorIdEEE16__destroy_vectorEEENS_28__exception_guard_exceptionsIT_EES7_, symObjAddr: 0x27F0, symBinAddr: 0x10000A008, symSize: 0x40 }
  - { offsetInCU: 0x5146, offset: 0x10AC7, size: 0x8, addend: 0x0, symName: __ZNSt3__119__allocate_at_leastB8ue170006INS_9allocatorIdEEEENS_19__allocation_resultINS_16allocator_traitsIT_E7pointerEEERS5_m, symObjAddr: 0x2AF4, symBinAddr: 0x10000A30C, symSize: 0x40 }
  - { offsetInCU: 0x538A, offset: 0x10D0B, size: 0x8, addend: 0x0, symName: __ZNSt3__112__to_addressB8ue170006IdEEPT_S2_, symObjAddr: 0x3024, symBinAddr: 0x10000A618, symSize: 0x14 }
  - { offsetInCU: 0x53BF, offset: 0x10D40, size: 0x8, addend: 0x0, symName: __ZNSt3__130__uninitialized_allocator_copyB8ue170006INS_9allocatorIdEEPdS3_S3_EET2_RT_T0_T1_S4_, symObjAddr: 0x30D4, symBinAddr: 0x10000A6C8, symSize: 0x80 }
  - { offsetInCU: 0x545C, offset: 0x10DDD, size: 0x8, addend: 0x0, symName: __ZNSt3__114__unwrap_rangeB8ue170006IPdS1_EENS_4pairIT0_S3_EET_S5_, symObjAddr: 0x31C4, symBinAddr: 0x10000A7B8, symSize: 0x60 }
  - { offsetInCU: 0x54A8, offset: 0x10E29, size: 0x8, addend: 0x0, symName: __ZNSt3__135__uninitialized_allocator_copy_implB8ue170006INS_9allocatorIdEEPdS3_S3_EET2_RT_T0_T1_S4_, symObjAddr: 0x3224, symBinAddr: 0x10000A818, symSize: 0xFC }
  - { offsetInCU: 0x5546, offset: 0x10EC7, size: 0x8, addend: 0x0, symName: __ZNSt3__113__unwrap_iterB8ue170006IPdNS_18__unwrap_iter_implIS1_Lb1EEELi0EEEDTclsrT0_8__unwrapclsr3stdE7declvalIT_EEEES5_, symObjAddr: 0x3320, symBinAddr: 0x10000A914, symSize: 0x24 }
  - { offsetInCU: 0x558A, offset: 0x10F0B, size: 0x8, addend: 0x0, symName: __ZNSt3__113__rewrap_iterB8ue170006IPdS1_NS_18__unwrap_iter_implIS1_Lb1EEEEET_S4_T0_, symObjAddr: 0x3344, symBinAddr: 0x10000A938, symSize: 0x50 }
  - { offsetInCU: 0x55DF, offset: 0x10F60, size: 0x8, addend: 0x0, symName: __ZNSt3__19make_pairB8ue170006IPdS1_EENS_4pairINS_18__unwrap_ref_decayIT_E4typeENS3_IT0_E4typeEEEOS4_OS7_, symObjAddr: 0x3394, symBinAddr: 0x10000A988, symSize: 0x38 }
  - { offsetInCU: 0x56DB, offset: 0x1105C, size: 0x8, addend: 0x0, symName: __ZNSt3__122__make_exception_guardB8ue170006INS_29_AllocatorDestroyRangeReverseINS_9allocatorIdEEPdEEEENS_28__exception_guard_exceptionsIT_EES7_, symObjAddr: 0x343C, symBinAddr: 0x10000AA30, symSize: 0x4C }
  - { offsetInCU: 0x5711, offset: 0x11092, size: 0x8, addend: 0x0, symName: __ZNSt3__119__allocator_destroyB8ue170006INS_9allocatorIdEENS_16reverse_iteratorIPdEES5_EEvRT_T0_T1_, symObjAddr: 0x36BC, symBinAddr: 0x10000ACB0, symSize: 0x70 }
  - { offsetInCU: 0x5774, offset: 0x110F5, size: 0x8, addend: 0x0, symName: __ZNSt3__1neB8ue170006IPdS1_EEbRKNS_16reverse_iteratorIT_EERKNS2_IT0_EE, symObjAddr: 0x3760, symBinAddr: 0x10000AD54, symSize: 0x48 }
  - { offsetInCU: 0x57C0, offset: 0x11141, size: 0x8, addend: 0x0, symName: __ZNSt3__112__to_addressB8ue170006INS_16reverse_iteratorIPdEEvEEu7__decayIDTclsr19__to_address_helperIT_EE6__callclsr3stdE7declvalIRKS4_EEEEES6_, symObjAddr: 0x37D4, symBinAddr: 0x10000ADC8, symSize: 0x24 }
  - { offsetInCU: 0x5873, offset: 0x111F4, size: 0x8, addend: 0x0, symName: __ZNSt3__119__allocator_destroyB8ue170006INS_9allocatorINS_6vectorIdNS1_IdEEEEEENS_16reverse_iteratorIPS4_EES8_EEvRT_T0_T1_, symObjAddr: 0x3DC0, symBinAddr: 0x10000B338, symSize: 0x70 }
  - { offsetInCU: 0x58D6, offset: 0x11257, size: 0x8, addend: 0x0, symName: __ZNSt3__1neB8ue170006IPNS_6vectorIdNS_9allocatorIdEEEES5_EEbRKNS_16reverse_iteratorIT_EERKNS6_IT0_EE, symObjAddr: 0x3E64, symBinAddr: 0x10000B3DC, symSize: 0x48 }
  - { offsetInCU: 0x5922, offset: 0x112A3, size: 0x8, addend: 0x0, symName: __ZNSt3__112__to_addressB8ue170006INS_16reverse_iteratorIPNS_6vectorIdNS_9allocatorIdEEEEEEvEEu7__decayIDTclsr19__to_address_helperIT_EE6__callclsr3stdE7declvalIRKS8_EEEEESA_, symObjAddr: 0x3ED8, symBinAddr: 0x10000B450, symSize: 0x24 }
  - { offsetInCU: 0x59D5, offset: 0x11356, size: 0x8, addend: 0x0, symName: __ZNSt3__123__dispatch_copy_or_moveB8ue170006INS_17_ClassicAlgPolicyENS_11__copy_loopIS1_EENS_14__copy_trivialEPNS_6vectorIdNS_9allocatorIdEEEES9_S9_EENS_4pairIT2_T4_EESB_T3_SC_, symObjAddr: 0x40F0, symBinAddr: 0x10000B668, symSize: 0x44 }
  - { offsetInCU: 0x5A53, offset: 0x113D4, size: 0x8, addend: 0x0, symName: __ZNSt3__121__unwrap_and_dispatchB8ue170006INS_10__overloadINS_11__copy_loopINS_17_ClassicAlgPolicyEEENS_14__copy_trivialEEEPNS_6vectorIdNS_9allocatorIdEEEESB_SB_Li0EEENS_4pairIT0_T2_EESD_T1_SE_, symObjAddr: 0x4134, symBinAddr: 0x10000B6AC, symSize: 0xB4 }
  - { offsetInCU: 0x5B33, offset: 0x114B4, size: 0x8, addend: 0x0, symName: __ZNSt3__114__rewrap_rangeB8ue170006IPNS_6vectorIdNS_9allocatorIdEEEES5_EET_S6_T0_, symObjAddr: 0x4270, symBinAddr: 0x10000B7E8, symSize: 0x2C }
  - { offsetInCU: 0x5B7F, offset: 0x11500, size: 0x8, addend: 0x0, symName: __ZNSt3__18distanceB8ue170006IPdEENS_15iterator_traitsIT_E15difference_typeES3_S3_, symObjAddr: 0x4504, symBinAddr: 0x10000BA7C, symSize: 0x2C }
  - { offsetInCU: 0x5BC2, offset: 0x11543, size: 0x8, addend: 0x0, symName: __ZNSt3__14nextB8ue170006IPdEENS_9enable_ifIXsr29__has_input_iterator_categoryIT_EE5valueES3_E4typeES3_NS_15iterator_traitsIS3_E15difference_typeE, symObjAddr: 0x4530, symBinAddr: 0x10000BAA8, symSize: 0x34 }
  - { offsetInCU: 0x5C05, offset: 0x11586, size: 0x8, addend: 0x0, symName: __ZNSt3__14copyB8ue170006IPdS1_EET0_T_S3_S2_, symObjAddr: 0x4564, symBinAddr: 0x10000BADC, symSize: 0x40 }
  - { offsetInCU: 0x5C5F, offset: 0x115E0, size: 0x8, addend: 0x0, symName: __ZNSt3__16__copyB8ue170006INS_17_ClassicAlgPolicyEPdS2_S2_EENS_4pairIT0_T2_EES4_T1_S5_, symObjAddr: 0x45A4, symBinAddr: 0x10000BB1C, symSize: 0x44 }
  - { offsetInCU: 0x5CCB, offset: 0x1164C, size: 0x8, addend: 0x0, symName: __ZNSt3__19__advanceB8ue170006IPdEEvRT_NS_15iterator_traitsIS2_E15difference_typeENS_26random_access_iterator_tagE, symObjAddr: 0x47B4, symBinAddr: 0x10000BD2C, symSize: 0x28 }
  - { offsetInCU: 0x5D16, offset: 0x11697, size: 0x8, addend: 0x0, symName: __ZNSt3__123__dispatch_copy_or_moveB8ue170006INS_17_ClassicAlgPolicyENS_11__copy_loopIS1_EENS_14__copy_trivialEPdS5_S5_EENS_4pairIT2_T4_EES7_T3_S8_, symObjAddr: 0x47DC, symBinAddr: 0x10000BD54, symSize: 0x44 }
  - { offsetInCU: 0x5D94, offset: 0x11715, size: 0x8, addend: 0x0, symName: __ZNSt3__121__unwrap_and_dispatchB8ue170006INS_10__overloadINS_11__copy_loopINS_17_ClassicAlgPolicyEEENS_14__copy_trivialEEEPdS7_S7_Li0EEENS_4pairIT0_T2_EES9_T1_SA_, symObjAddr: 0x4820, symBinAddr: 0x10000BD98, symSize: 0xB4 }
  - { offsetInCU: 0x5E68, offset: 0x117E9, size: 0x8, addend: 0x0, symName: __ZNSt3__114__rewrap_rangeB8ue170006IPdS1_EET_S2_T0_, symObjAddr: 0x491C, symBinAddr: 0x10000BE94, symSize: 0x2C }
  - { offsetInCU: 0x5EB4, offset: 0x11835, size: 0x8, addend: 0x0, symName: __ZNSt3__119__copy_trivial_implB8ue170006IddEENS_4pairIPT_PT0_EES3_S3_S5_, symObjAddr: 0x4948, symBinAddr: 0x10000BEC0, symSize: 0x80 }
  - { offsetInCU: 0x5F1C, offset: 0x1189D, size: 0x8, addend: 0x0, symName: __ZNSt3__119__constexpr_memmoveB8ue170006IddLi0EEEPT_S2_PT0_NS_15__element_countE, symObjAddr: 0x49C8, symBinAddr: 0x10000BF40, symSize: 0xA0 }
  - { offsetInCU: 0x5F8A, offset: 0x1190B, size: 0x8, addend: 0x0, symName: __ZNSt3__19make_pairB8ue170006IRPdS1_EENS_4pairINS_18__unwrap_ref_decayIT_E4typeENS4_IT0_E4typeEEEOS5_OS8_, symObjAddr: 0x4A68, symBinAddr: 0x10000BFE0, symSize: 0x38 }
  - { offsetInCU: 0x5FD9, offset: 0x1195A, size: 0x8, addend: 0x0, symName: __ZNSt3__13maxB8ue170006ImEERKT_S3_S3_, symObjAddr: 0x4B98, symBinAddr: 0x10000C110, symSize: 0x2C }
  - { offsetInCU: 0x601C, offset: 0x1199D, size: 0x8, addend: 0x0, symName: __ZNSt3__13maxB8ue170006ImNS_6__lessIvvEEEERKT_S5_S5_T0_, symObjAddr: 0x4BC4, symBinAddr: 0x10000C13C, symSize: 0x54 }
  - { offsetInCU: 0x6076, offset: 0x119F7, size: 0x8, addend: 0x0, symName: __ZNSt3__110__distanceB8ue170006IPdEENS_15iterator_traitsIT_E15difference_typeES3_S3_NS_26random_access_iterator_tagE, symObjAddr: 0x4C18, symBinAddr: 0x10000C190, symSize: 0x28 }
  - { offsetInCU: 0x60C4, offset: 0x11A45, size: 0x8, addend: 0x0, symName: __ZNSt3__119__allocate_at_leastB8ue170006INS_9allocatorINS_6vectorIdNS1_IdEEEEEEEENS_19__allocation_resultINS_16allocator_traitsIT_E7pointerEEERS8_m, symObjAddr: 0x50D0, symBinAddr: 0x10000C648, symSize: 0x40 }
  - { offsetInCU: 0x6107, offset: 0x11A88, size: 0x8, addend: 0x0, symName: __ZNSt3__110__distanceB8ue170006IPNS_6vectorIdNS_9allocatorIdEEEEEENS_15iterator_traitsIT_E15difference_typeES7_S7_NS_26random_access_iterator_tagE, symObjAddr: 0x5300, symBinAddr: 0x10000C878, symSize: 0x28 }
  - { offsetInCU: 0x6155, offset: 0x11AD6, size: 0x8, addend: 0x0, symName: __ZNSt3__122__make_exception_guardB8ue170006INS_6vectorINS1_IdNS_9allocatorIdEEEENS2_IS4_EEE16__destroy_vectorEEENS_28__exception_guard_exceptionsIT_EES9_, symObjAddr: 0x5540, symBinAddr: 0x10000CAB8, symSize: 0x40 }
  - { offsetInCU: 0x618A, offset: 0x11B0B, size: 0x8, addend: 0x0, symName: __ZNSt3__142__uninitialized_allocator_move_if_noexceptB8ue170006INS_9allocatorIdEENS_16reverse_iteratorIPdEES5_dvEET1_RT_T0_S9_S6_, symObjAddr: 0x5F9C, symBinAddr: 0x10000D514, symSize: 0xE8 }
  - { offsetInCU: 0x6208, offset: 0x11B89, size: 0x8, addend: 0x0, symName: __ZNSt3__14swapB8ue170006IPdEEvRT_S3_, symObjAddr: 0x6084, symBinAddr: 0x10000D5FC, symSize: 0x3C }
  - { offsetInCU: 0x627E, offset: 0x11BFF, size: 0x8, addend: 0x0, symName: __ZNSt3__114__construct_atB8ue170006IdJdEPdEEPT_S3_DpOT0_, symObjAddr: 0x60C0, symBinAddr: 0x10000D638, symSize: 0x2C }
  - { offsetInCU: 0x62EE, offset: 0x11C6F, size: 0x8, addend: 0x0, symName: __ZNSt3__14moveB8ue170006INS_16reverse_iteratorIPdEES3_EET0_T_S5_S4_, symObjAddr: 0x60EC, symBinAddr: 0x10000D664, symSize: 0x78 }
  - { offsetInCU: 0x6348, offset: 0x11CC9, size: 0x8, addend: 0x0, symName: __ZNSt3__16__moveB8ue170006INS_17_ClassicAlgPolicyENS_16reverse_iteratorIPdEES4_S4_EENS_4pairIT0_T2_EES6_T1_S7_, symObjAddr: 0x6164, symBinAddr: 0x10000D6DC, symSize: 0x64 }
  - { offsetInCU: 0x63B4, offset: 0x11D35, size: 0x8, addend: 0x0, symName: __ZNSt3__123__dispatch_copy_or_moveB8ue170006INS_17_ClassicAlgPolicyENS_11__move_loopIS1_EENS_14__move_trivialENS_16reverse_iteratorIPdEES7_S7_EENS_4pairIT2_T4_EES9_T3_SA_, symObjAddr: 0x61C8, symBinAddr: 0x10000D740, symSize: 0x64 }
  - { offsetInCU: 0x6432, offset: 0x11DB3, size: 0x8, addend: 0x0, symName: __ZNSt3__121__unwrap_and_dispatchB8ue170006INS_10__overloadINS_11__move_loopINS_17_ClassicAlgPolicyEEENS_14__move_trivialEEENS_16reverse_iteratorIPdEES9_S9_Li0EEENS_4pairIT0_T2_EESB_T1_SC_, symObjAddr: 0x622C, symBinAddr: 0x10000D7A4, symSize: 0x12C }
  - { offsetInCU: 0x64C2, offset: 0x11E43, size: 0x8, addend: 0x0, symName: __ZNSt3__114__unwrap_rangeB8ue170006INS_16reverse_iteratorIPdEES3_EENS_4pairIT0_S5_EET_S7_, symObjAddr: 0x6358, symBinAddr: 0x10000D8D0, symSize: 0x84 }
  - { offsetInCU: 0x660D, offset: 0x11F8E, size: 0x8, addend: 0x0, symName: __ZNSt3__113__unwrap_iterB8ue170006INS_16reverse_iteratorIPdEENS_18__unwrap_iter_implIS3_Lb0EEELi0EEEDTclsrT0_8__unwrapclsr3stdE7declvalIT_EEEES7_, symObjAddr: 0x647C, symBinAddr: 0x10000D9F4, symSize: 0x44 }
  - { offsetInCU: 0x6651, offset: 0x11FD2, size: 0x8, addend: 0x0, symName: __ZNSt3__19make_pairB8ue170006INS_16reverse_iteratorIPdEES3_EENS_4pairINS_18__unwrap_ref_decayIT_E4typeENS5_IT0_E4typeEEEOS6_OS9_, symObjAddr: 0x64C0, symBinAddr: 0x10000DA38, symSize: 0x38 }
  - { offsetInCU: 0x66A0, offset: 0x12021, size: 0x8, addend: 0x0, symName: __ZNSt3__114__rewrap_rangeB8ue170006INS_16reverse_iteratorIPdEES3_EET_S4_T0_, symObjAddr: 0x64F8, symBinAddr: 0x10000DA70, symSize: 0x5C }
  - { offsetInCU: 0x66EC, offset: 0x1206D, size: 0x8, addend: 0x0, symName: __ZNSt3__113__rewrap_iterB8ue170006INS_16reverse_iteratorIPdEES3_NS_18__unwrap_iter_implIS3_Lb0EEEEET_S6_T0_, symObjAddr: 0x6554, symBinAddr: 0x10000DACC, symSize: 0x88 }
  - { offsetInCU: 0x67F4, offset: 0x12175, size: 0x8, addend: 0x0, symName: __ZNSt3__142__uninitialized_allocator_move_if_noexceptB8ue170006INS_9allocatorINS_6vectorIdNS1_IdEEEEEENS_16reverse_iteratorIPS4_EES8_S8_EET2_RT_T0_T1_S9_, symObjAddr: 0x6E50, symBinAddr: 0x10000E3C8, symSize: 0x124 }
  - { offsetInCU: 0x6894, offset: 0x12215, size: 0x8, addend: 0x0, symName: __ZNSt3__14swapB8ue170006IPNS_6vectorIdNS_9allocatorIdEEEEEEvRT_S7_, symObjAddr: 0x6F74, symBinAddr: 0x10000E4EC, symSize: 0x3C }
  - { offsetInCU: 0x68E5, offset: 0x12266, size: 0x8, addend: 0x0, symName: __ZNSt3__122__make_exception_guardB8ue170006INS_29_AllocatorDestroyRangeReverseINS_9allocatorINS_6vectorIdNS2_IdEEEEEENS_16reverse_iteratorIPS5_EEEEEENS_28__exception_guard_exceptionsIT_EESC_, symObjAddr: 0x6FB0, symBinAddr: 0x10000E528, symSize: 0x4C }
  - { offsetInCU: 0x691B, offset: 0x1229C, size: 0x8, addend: 0x0, symName: __ZNSt3__119__allocator_destroyB8ue170006INS_9allocatorINS_6vectorIdNS1_IdEEEEEENS_16reverse_iteratorINS6_IPS4_EEEES9_EEvRT_T0_T1_, symObjAddr: 0x7220, symBinAddr: 0x10000E798, symSize: 0x70 }
  - { offsetInCU: 0x6980, offset: 0x12301, size: 0x8, addend: 0x0, symName: __ZNSt3__1neB8ue170006INS_16reverse_iteratorIPNS_6vectorIdNS_9allocatorIdEEEEEES7_EEbRKNS1_IT_EERKNS1_IT0_EE, symObjAddr: 0x72CC, symBinAddr: 0x10000E844, symSize: 0x60 }
  - { offsetInCU: 0x69CC, offset: 0x1234D, size: 0x8, addend: 0x0, symName: __ZNSt3__112__to_addressB8ue170006INS_16reverse_iteratorINS1_IPNS_6vectorIdNS_9allocatorIdEEEEEEEEvEEu7__decayIDTclsr19__to_address_helperIT_EE6__callclsr3stdE7declvalIRKS9_EEEEESB_, symObjAddr: 0x732C, symBinAddr: 0x10000E8A4, symSize: 0x24 }
  - { offsetInCU: 0x6EEA, offset: 0x1286B, size: 0x8, addend: 0x0, symName: __ZNSt3__16vectorIdNS_9allocatorIdEEE26__swap_out_circular_bufferERNS_14__split_bufferIdRS2_EE, symObjAddr: 0x5C34, symBinAddr: 0x10000D1AC, symSize: 0x110 }
  - { offsetInCU: 0x6F2D, offset: 0x128AE, size: 0x8, addend: 0x0, symName: __ZNSt3__16vectorINS0_IdNS_9allocatorIdEEEENS1_IS3_EEE26__swap_out_circular_bufferERNS_14__split_bufferIS3_RS4_EE, symObjAddr: 0x6ADC, symBinAddr: 0x10000E054, symSize: 0x110 }
  - { offsetInCU: 0x6FAC, offset: 0x1292D, size: 0x8, addend: 0x0, symName: __Z3powB8ue170006IiiENSt3__19enable_ifIXaasr3std13is_arithmeticIT_EE5valuesr3std13is_arithmeticIT0_EE5valueENS0_9__promoteIS2_S3_vEEE4type4typeES2_S3_, symObjAddr: 0x11D8, symBinAddr: 0x1000089F0, symSize: 0x44 }
  - { offsetInCU: 0x8DD6, offset: 0x14757, size: 0x8, addend: 0x0, symName: __ZN6Matrix9setMatrixENSt3__16vectorINS1_IdNS0_9allocatorIdEEEENS2_IS4_EEEE, symObjAddr: 0x0, symBinAddr: 0x100007824, symSize: 0x2C }
  - { offsetInCU: 0x8E0D, offset: 0x1478E, size: 0x8, addend: 0x0, symName: __ZNSt3__16vectorINS0_IdNS_9allocatorIdEEEENS1_IS3_EEEaSB8ue170006ERKS5_, symObjAddr: 0x2C, symBinAddr: 0x100007850, symSize: 0x68 }
  - { offsetInCU: 0x8E44, offset: 0x147C5, size: 0x8, addend: 0x0, symName: __ZN6Matrix9getMatrixEv, symObjAddr: 0x94, symBinAddr: 0x1000078B8, symSize: 0x38 }
  - { offsetInCU: 0x8E6D, offset: 0x147EE, size: 0x8, addend: 0x0, symName: __ZNSt3__16vectorINS0_IdNS_9allocatorIdEEEENS1_IS3_EEEC1ERKS5_, symObjAddr: 0xCC, symBinAddr: 0x1000078F0, symSize: 0x34 }
  - { offsetInCU: 0x8EA8, offset: 0x14829, size: 0x8, addend: 0x0, symName: __ZN6Matrix8additionENSt3__16vectorINS1_IdNS0_9allocatorIdEEEENS2_IS4_EEEES6_, symObjAddr: 0x100, symBinAddr: 0x100007924, symSize: 0x1C8 }
  - { offsetInCU: 0x8F28, offset: 0x148A9, size: 0x8, addend: 0x0, symName: __ZNSt3__16vectorINS0_IdNS_9allocatorIdEEEENS1_IS3_EEEC1B8ue170006Ev, symObjAddr: 0x2C8, symBinAddr: 0x100007AEC, symSize: 0x2C }
  - { offsetInCU: 0x8F52, offset: 0x148D3, size: 0x8, addend: 0x0, symName: __ZNKSt3__16vectorINS0_IdNS_9allocatorIdEEEENS1_IS3_EEE4sizeB8ue170006Ev, symObjAddr: 0x2F4, symBinAddr: 0x100007B18, symSize: 0x28 }
  - { offsetInCU: 0x8F78, offset: 0x148F9, size: 0x8, addend: 0x0, symName: __ZNSt3__16vectorIdNS_9allocatorIdEEEC1B8ue170006Ev, symObjAddr: 0x31C, symBinAddr: 0x100007B40, symSize: 0x2C }
  - { offsetInCU: 0x8FA2, offset: 0x14923, size: 0x8, addend: 0x0, symName: __ZNSt3__16vectorINS0_IdNS_9allocatorIdEEEENS1_IS3_EEEixB8ue170006Em, symObjAddr: 0x348, symBinAddr: 0x100007B6C, symSize: 0x2C }
  - { offsetInCU: 0x8FD9, offset: 0x1495A, size: 0x8, addend: 0x0, symName: __ZNKSt3__16vectorIdNS_9allocatorIdEEE4sizeB8ue170006Ev, symObjAddr: 0x374, symBinAddr: 0x100007B98, symSize: 0x28 }
  - { offsetInCU: 0x8FFE, offset: 0x1497F, size: 0x8, addend: 0x0, symName: __ZNSt3__16vectorIdNS_9allocatorIdEEE9push_backB8ue170006EOd, symObjAddr: 0x39C, symBinAddr: 0x100007BC0, symSize: 0x6C }
  - { offsetInCU: 0x9036, offset: 0x149B7, size: 0x8, addend: 0x0, symName: __ZNSt3__16vectorIdNS_9allocatorIdEEEixB8ue170006Em, symObjAddr: 0x408, symBinAddr: 0x100007C2C, symSize: 0x24 }
  - { offsetInCU: 0x906C, offset: 0x149ED, size: 0x8, addend: 0x0, symName: __ZNSt3__16vectorINS0_IdNS_9allocatorIdEEEENS1_IS3_EEE9push_backB8ue170006ERKS3_, symObjAddr: 0x42C, symBinAddr: 0x100007C50, symSize: 0x6C }
  - { offsetInCU: 0x90A4, offset: 0x14A25, size: 0x8, addend: 0x0, symName: __ZNSt3__16vectorIdNS_9allocatorIdEEED1B8ue170006Ev, symObjAddr: 0x498, symBinAddr: 0x100007CBC, symSize: 0x2C }
  - { offsetInCU: 0x90CE, offset: 0x14A4F, size: 0x8, addend: 0x0, symName: __ZNSt3__16vectorINS0_IdNS_9allocatorIdEEEENS1_IS3_EEED1B8ue170006Ev, symObjAddr: 0x4D0, symBinAddr: 0x100007CE8, symSize: 0x2C }
  - { offsetInCU: 0x90F8, offset: 0x14A79, size: 0x8, addend: 0x0, symName: __ZN6Matrix11subtractionENSt3__16vectorINS1_IdNS0_9allocatorIdEEEENS2_IS4_EEEES6_, symObjAddr: 0x4FC, symBinAddr: 0x100007D14, symSize: 0x1C8 }
  - { offsetInCU: 0x9178, offset: 0x14AF9, size: 0x8, addend: 0x0, symName: __ZN6Matrix14multiplicationENSt3__16vectorINS1_IdNS0_9allocatorIdEEEENS2_IS4_EEEES6_, symObjAddr: 0x6C4, symBinAddr: 0x100007EDC, symSize: 0x214 }
  - { offsetInCU: 0x9229, offset: 0x14BAA, size: 0x8, addend: 0x0, symName: __ZNSt3__16vectorIdNS_9allocatorIdEEE9push_backB8ue170006ERKd, symObjAddr: 0x8D8, symBinAddr: 0x1000080F0, symSize: 0x6C }
  - { offsetInCU: 0x9261, offset: 0x14BE2, size: 0x8, addend: 0x0, symName: __ZN6Matrix8divisionENSt3__16vectorINS1_IdNS0_9allocatorIdEEEENS2_IS4_EEEES6_, symObjAddr: 0x944, symBinAddr: 0x10000815C, symSize: 0x178 }
  - { offsetInCU: 0x92B4, offset: 0x14C35, size: 0x8, addend: 0x0, symName: __ZN6Matrix17getInversedMatrixENSt3__16vectorINS1_IdNS0_9allocatorIdEEEENS2_IS4_EEEE, symObjAddr: 0xABC, symBinAddr: 0x1000082D4, symSize: 0x300 }
  - { offsetInCU: 0x9345, offset: 0x14CC6, size: 0x8, addend: 0x0, symName: __ZN6Matrix14getDeterminantENSt3__16vectorINS1_IdNS0_9allocatorIdEEEENS2_IS4_EEEE, symObjAddr: 0xDBC, symBinAddr: 0x1000085D4, symSize: 0x244 }
  - { offsetInCU: 0x9393, offset: 0x14D14, size: 0x8, addend: 0x0, symName: __ZN6Matrix12getSubMatrixENSt3__16vectorINS1_IdNS0_9allocatorIdEEEENS2_IS4_EEEEii, symObjAddr: 0x1000, symBinAddr: 0x100008818, symSize: 0x1D8 }
  - { offsetInCU: 0x9420, offset: 0x14DA1, size: 0x8, addend: 0x0, symName: __ZNKSt3__16vectorIdNS_9allocatorIdEEE5emptyB8ue170006Ev, symObjAddr: 0x121C, symBinAddr: 0x100008A34, symSize: 0x28 }
  - { offsetInCU: 0x9446, offset: 0x14DC7, size: 0x8, addend: 0x0, symName: __ZN6Matrix4setNEi, symObjAddr: 0x1244, symBinAddr: 0x100008A5C, symSize: 0x1C }
  - { offsetInCU: 0x946B, offset: 0x14DEC, size: 0x8, addend: 0x0, symName: __ZN6Matrix6getAdjENSt3__16vectorINS1_IdNS0_9allocatorIdEEEENS2_IS4_EEEE, symObjAddr: 0x1260, symBinAddr: 0x100008A78, symSize: 0x2C4 }
  - { offsetInCU: 0x94DC, offset: 0x14E5D, size: 0x8, addend: 0x0, symName: __ZN6Matrix9transformENSt3__16vectorINS1_IdNS0_9allocatorIdEEEENS2_IS4_EEEE, symObjAddr: 0x1524, symBinAddr: 0x100008D3C, symSize: 0x238 }
  - { offsetInCU: 0x9586, offset: 0x14F07, size: 0x8, addend: 0x0, symName: __ZNSt3__16vectorINS0_IdNS_9allocatorIdEEEENS1_IS3_EEEaSB8ue170006EOS5_, symObjAddr: 0x175C, symBinAddr: 0x100008F74, symSize: 0x34 }
  - { offsetInCU: 0x95BE, offset: 0x14F3F, size: 0x8, addend: 0x0, symName: __ZN6Matrix13divideByConstENSt3__16vectorINS1_IdNS0_9allocatorIdEEEENS2_IS4_EEEEd, symObjAddr: 0x1790, symBinAddr: 0x100008FA8, symSize: 0xE4 }
  - { offsetInCU: 0x962A, offset: 0x14FAB, size: 0x8, addend: 0x0, symName: __ZNSt3__16vectorINS0_IdNS_9allocatorIdEEEENS1_IS3_EEEC1B8ue170006EOS5_, symObjAddr: 0x1874, symBinAddr: 0x10000908C, symSize: 0x34 }
  - { offsetInCU: 0x9665, offset: 0x14FE6, size: 0x8, addend: 0x0, symName: __ZNSt3__16vectorINS0_IdNS_9allocatorIdEEEENS1_IS3_EEE19__copy_assign_allocB8ue170006ERKS5_, symObjAddr: 0x18A8, symBinAddr: 0x1000090C0, symSize: 0x2C }
  - { offsetInCU: 0x9699, offset: 0x1501A, size: 0x8, addend: 0x0, symName: __ZNSt3__16vectorINS0_IdNS_9allocatorIdEEEENS1_IS3_EEE6assignIPS3_Li0EEEvT_S8_, symObjAddr: 0x18D4, symBinAddr: 0x1000090EC, symSize: 0x5C }
  - { offsetInCU: 0x96EF, offset: 0x15070, size: 0x8, addend: 0x0, symName: __ZNSt3__16vectorINS0_IdNS_9allocatorIdEEEENS1_IS3_EEE19__copy_assign_allocB8ue170006ERKS5_NS_17integral_constantIbLb0EEE, symObjAddr: 0x1930, symBinAddr: 0x100009148, symSize: 0x14 }
  - { offsetInCU: 0x972C, offset: 0x150AD, size: 0x8, addend: 0x0, symName: __ZNSt3__16vectorINS0_IdNS_9allocatorIdEEEENS1_IS3_EEE18__assign_with_sizeB8ue170006IPS3_S7_EEvT_T0_l, symObjAddr: 0x1944, symBinAddr: 0x10000915C, symSize: 0x164 }
  - { offsetInCU: 0x97DD, offset: 0x1515E, size: 0x8, addend: 0x0, symName: __ZNKSt3__16vectorINS0_IdNS_9allocatorIdEEEENS1_IS3_EEE8capacityB8ue170006Ev, symObjAddr: 0x1AD4, symBinAddr: 0x1000092EC, symSize: 0x40 }
  - { offsetInCU: 0x9802, offset: 0x15183, size: 0x8, addend: 0x0, symName: __ZNSt3__16vectorINS0_IdNS_9allocatorIdEEEENS1_IS3_EEE18__construct_at_endIPS3_S7_EEvT_T0_m, symObjAddr: 0x1B88, symBinAddr: 0x1000093A0, symSize: 0x94 }
  - { offsetInCU: 0x9879, offset: 0x151FA, size: 0x8, addend: 0x0, symName: __ZNSt3__16vectorINS0_IdNS_9allocatorIdEEEENS1_IS3_EEE17__destruct_at_endB8ue170006EPS3_, symObjAddr: 0x1C60, symBinAddr: 0x100009478, symSize: 0x4C }
  - { offsetInCU: 0x98BC, offset: 0x1523D, size: 0x8, addend: 0x0, symName: __ZNSt3__16vectorINS0_IdNS_9allocatorIdEEEENS1_IS3_EEE13__vdeallocateEv, symObjAddr: 0x1CAC, symBinAddr: 0x1000094C4, symSize: 0x94 }
  - { offsetInCU: 0x98E5, offset: 0x15266, size: 0x8, addend: 0x0, symName: __ZNSt3__16vectorINS0_IdNS_9allocatorIdEEEENS1_IS3_EEE11__vallocateB8ue170006Em, symObjAddr: 0x1D40, symBinAddr: 0x100009558, symSize: 0xB4 }
  - { offsetInCU: 0x9928, offset: 0x152A9, size: 0x8, addend: 0x0, symName: __ZNKSt3__16vectorINS0_IdNS_9allocatorIdEEEENS1_IS3_EEE11__recommendB8ue170006Em, symObjAddr: 0x1DF4, symBinAddr: 0x10000960C, symSize: 0xB4 }
  - { offsetInCU: 0x997E, offset: 0x152FF, size: 0x8, addend: 0x0, symName: __ZNKSt3__16vectorINS0_IdNS_9allocatorIdEEEENS1_IS3_EEE9__end_capB8ue170006Ev, symObjAddr: 0x1EA8, symBinAddr: 0x1000096C0, symSize: 0x28 }
  - { offsetInCU: 0x99A4, offset: 0x15325, size: 0x8, addend: 0x0, symName: __ZNKSt3__117__compressed_pairIPNS_6vectorIdNS_9allocatorIdEEEENS2_IS4_EEE5firstB8ue170006Ev, symObjAddr: 0x1ED0, symBinAddr: 0x1000096E8, symSize: 0x24 }
  - { offsetInCU: 0x99CA, offset: 0x1534B, size: 0x8, addend: 0x0, symName: __ZNKSt3__122__compressed_pair_elemIPNS_6vectorIdNS_9allocatorIdEEEELi0ELb0EE5__getB8ue170006Ev, symObjAddr: 0x1EF4, symBinAddr: 0x10000970C, symSize: 0x14 }
  - { offsetInCU: 0x9A09, offset: 0x1538A, size: 0x8, addend: 0x0, symName: __ZNSt3__16vectorINS0_IdNS_9allocatorIdEEEENS1_IS3_EEE21_ConstructTransactionC1B8ue170006ERS5_m, symObjAddr: 0x1F84, symBinAddr: 0x10000979C, symSize: 0x3C }
  - { offsetInCU: 0x9A51, offset: 0x153D2, size: 0x8, addend: 0x0, symName: __ZNSt3__16vectorINS0_IdNS_9allocatorIdEEEENS1_IS3_EEE7__allocB8ue170006Ev, symObjAddr: 0x2040, symBinAddr: 0x100009858, symSize: 0x28 }
  - { offsetInCU: 0x9A77, offset: 0x153F8, size: 0x8, addend: 0x0, symName: __ZNSt3__16vectorINS0_IdNS_9allocatorIdEEEENS1_IS3_EEE21_ConstructTransactionD1B8ue170006Ev, symObjAddr: 0x2068, symBinAddr: 0x100009880, symSize: 0x2C }
  - { offsetInCU: 0x9AA1, offset: 0x15422, size: 0x8, addend: 0x0, symName: __ZNSt3__16vectorINS0_IdNS_9allocatorIdEEEENS1_IS3_EEE21_ConstructTransactionC2B8ue170006ERS5_m, symObjAddr: 0x2094, symBinAddr: 0x1000098AC, symSize: 0x4C }
  - { offsetInCU: 0x9B02, offset: 0x15483, size: 0x8, addend: 0x0, symName: __ZNSt3__14pairIPNS_6vectorIdNS_9allocatorIdEEEES5_EC1B8ue170006ERKS5_S8_, symObjAddr: 0x22E8, symBinAddr: 0x100009B00, symSize: 0x3C }
  - { offsetInCU: 0x9B48, offset: 0x154C9, size: 0x8, addend: 0x0, symName: __ZNSt3__14pairIPNS_6vectorIdNS_9allocatorIdEEEES5_EC2B8ue170006ERKS5_S8_, symObjAddr: 0x2324, symBinAddr: 0x100009B3C, symSize: 0x34 }
  - { offsetInCU: 0x9B8E, offset: 0x1550F, size: 0x8, addend: 0x0, symName: __ZNSt3__129_AllocatorDestroyRangeReverseINS_9allocatorINS_6vectorIdNS1_IdEEEEEEPS4_EC1B8ue170006ERS5_RS6_S9_, symObjAddr: 0x23A4, symBinAddr: 0x100009BBC, symSize: 0x44 }
  - { offsetInCU: 0x9BE5, offset: 0x15566, size: 0x8, addend: 0x0, symName: __ZNSt3__116allocator_traitsINS_9allocatorINS_6vectorIdNS1_IdEEEEEEE9constructB8ue170006IS4_JRS4_EvEEvRS5_PT_DpOT0_, symObjAddr: 0x23E8, symBinAddr: 0x100009C00, symSize: 0x34 }
  - { offsetInCU: 0x9C3C, offset: 0x155BD, size: 0x8, addend: 0x0, symName: __ZNSt3__128__exception_guard_exceptionsINS_29_AllocatorDestroyRangeReverseINS_9allocatorINS_6vectorIdNS2_IdEEEEEEPS5_EEE10__completeB8ue170006Ev, symObjAddr: 0x2430, symBinAddr: 0x100009C48, symSize: 0x1C }
  - { offsetInCU: 0x9C62, offset: 0x155E3, size: 0x8, addend: 0x0, symName: __ZNSt3__128__exception_guard_exceptionsINS_29_AllocatorDestroyRangeReverseINS_9allocatorINS_6vectorIdNS2_IdEEEEEEPS5_EEED1B8ue170006Ev, symObjAddr: 0x244C, symBinAddr: 0x100009C64, symSize: 0x2C }
  - { offsetInCU: 0x9C8C, offset: 0x1560D, size: 0x8, addend: 0x0, symName: __ZNSt3__128__exception_guard_exceptionsINS_29_AllocatorDestroyRangeReverseINS_9allocatorINS_6vectorIdNS2_IdEEEEEEPS5_EEEC1B8ue170006ES8_, symObjAddr: 0x2478, symBinAddr: 0x100009C90, symSize: 0x34 }
  - { offsetInCU: 0x9CC5, offset: 0x15646, size: 0x8, addend: 0x0, symName: __ZNSt3__128__exception_guard_exceptionsINS_29_AllocatorDestroyRangeReverseINS_9allocatorINS_6vectorIdNS2_IdEEEEEEPS5_EEEC2B8ue170006ES8_, symObjAddr: 0x24AC, symBinAddr: 0x100009CC4, symSize: 0x30 }
  - { offsetInCU: 0x9CFE, offset: 0x1567F, size: 0x8, addend: 0x0, symName: __ZNSt3__129_AllocatorDestroyRangeReverseINS_9allocatorINS_6vectorIdNS1_IdEEEEEEPS4_EC2B8ue170006ERS5_RS6_S9_, symObjAddr: 0x24DC, symBinAddr: 0x100009CF4, symSize: 0x38 }
  - { offsetInCU: 0x9D55, offset: 0x156D6, size: 0x8, addend: 0x0, symName: __ZNSt3__19allocatorINS_6vectorIdNS0_IdEEEEE9constructB8ue170006IS3_JRS3_EEEvPT_DpOT0_, symObjAddr: 0x2514, symBinAddr: 0x100009D2C, symSize: 0x30 }
  - { offsetInCU: 0x9DAB, offset: 0x1572C, size: 0x8, addend: 0x0, symName: __ZNSt3__16vectorIdNS_9allocatorIdEEEC1ERKS3_, symObjAddr: 0x2544, symBinAddr: 0x100009D5C, symSize: 0x34 }
  - { offsetInCU: 0x9DE6, offset: 0x15767, size: 0x8, addend: 0x0, symName: __ZNSt3__16vectorIdNS_9allocatorIdEEEC2ERKS3_, symObjAddr: 0x2578, symBinAddr: 0x100009D90, symSize: 0x94 }
  - { offsetInCU: 0x9E2B, offset: 0x157AC, size: 0x8, addend: 0x0, symName: __ZNSt3__116allocator_traitsINS_9allocatorIdEEE37select_on_container_copy_constructionB8ue170006IS2_vvEES2_RKS2_, symObjAddr: 0x260C, symBinAddr: 0x100009E24, symSize: 0x10 }
  - { offsetInCU: 0x9E5A, offset: 0x157DB, size: 0x8, addend: 0x0, symName: __ZNKSt3__16vectorIdNS_9allocatorIdEEE7__allocB8ue170006Ev, symObjAddr: 0x261C, symBinAddr: 0x100009E34, symSize: 0x28 }
  - { offsetInCU: 0x9E8A, offset: 0x1580B, size: 0x8, addend: 0x0, symName: __ZNSt3__117__compressed_pairIPdNS_9allocatorIdEEEC1B8ue170006IDnS3_EEOT_OT0_, symObjAddr: 0x2644, symBinAddr: 0x100009E5C, symSize: 0x3C }
  - { offsetInCU: 0x9EE2, offset: 0x15863, size: 0x8, addend: 0x0, symName: __ZNSt3__16vectorIdNS_9allocatorIdEEE16__init_with_sizeB8ue170006IPdS5_EEvT_T0_m, symObjAddr: 0x2680, symBinAddr: 0x100009E98, symSize: 0xC0 }
  - { offsetInCU: 0x9F56, offset: 0x158D7, size: 0x8, addend: 0x0, symName: __ZNKSt3__117__compressed_pairIPdNS_9allocatorIdEEE6secondB8ue170006Ev, symObjAddr: 0x2740, symBinAddr: 0x100009F58, symSize: 0x24 }
  - { offsetInCU: 0x9F7C, offset: 0x158FD, size: 0x8, addend: 0x0, symName: __ZNKSt3__122__compressed_pair_elemINS_9allocatorIdEELi1ELb1EE5__getB8ue170006Ev, symObjAddr: 0x2764, symBinAddr: 0x100009F7C, symSize: 0x14 }
  - { offsetInCU: 0x9FA2, offset: 0x15923, size: 0x8, addend: 0x0, symName: __ZNSt3__117__compressed_pairIPdNS_9allocatorIdEEEC2B8ue170006IDnS3_EEOT_OT0_, symObjAddr: 0x2778, symBinAddr: 0x100009F90, symSize: 0x44 }
  - { offsetInCU: 0x9FFA, offset: 0x1597B, size: 0x8, addend: 0x0, symName: __ZNSt3__122__compressed_pair_elemIPdLi0ELb0EEC2B8ue170006IDnvEEOT_, symObjAddr: 0x27BC, symBinAddr: 0x100009FD4, symSize: 0x1C }
  - { offsetInCU: 0xA03C, offset: 0x159BD, size: 0x8, addend: 0x0, symName: __ZNSt3__122__compressed_pair_elemINS_9allocatorIdEELi1ELb1EEC2B8ue170006IS2_vEEOT_, symObjAddr: 0x27D8, symBinAddr: 0x100009FF0, symSize: 0x18 }
  - { offsetInCU: 0xA07E, offset: 0x159FF, size: 0x8, addend: 0x0, symName: __ZNSt3__16vectorIdNS_9allocatorIdEEE16__destroy_vectorC1B8ue170006ERS3_, symObjAddr: 0x2830, symBinAddr: 0x10000A048, symSize: 0x34 }
  - { offsetInCU: 0xA0B7, offset: 0x15A38, size: 0x8, addend: 0x0, symName: __ZNSt3__16vectorIdNS_9allocatorIdEEE11__vallocateB8ue170006Em, symObjAddr: 0x2864, symBinAddr: 0x10000A07C, symSize: 0xAC }
  - { offsetInCU: 0xA0FA, offset: 0x15A7B, size: 0x8, addend: 0x0, symName: __ZNSt3__16vectorIdNS_9allocatorIdEEE18__construct_at_endIPdS5_EEvT_T0_m, symObjAddr: 0x2910, symBinAddr: 0x10000A128, symSize: 0x94 }
  - { offsetInCU: 0xA171, offset: 0x15AF2, size: 0x8, addend: 0x0, symName: __ZNSt3__128__exception_guard_exceptionsINS_6vectorIdNS_9allocatorIdEEE16__destroy_vectorEE10__completeB8ue170006Ev, symObjAddr: 0x29A4, symBinAddr: 0x10000A1BC, symSize: 0x1C }
  - { offsetInCU: 0xA197, offset: 0x15B18, size: 0x8, addend: 0x0, symName: __ZNSt3__128__exception_guard_exceptionsINS_6vectorIdNS_9allocatorIdEEE16__destroy_vectorEED1B8ue170006Ev, symObjAddr: 0x29C0, symBinAddr: 0x10000A1D8, symSize: 0x2C }
  - { offsetInCU: 0xA1C1, offset: 0x15B42, size: 0x8, addend: 0x0, symName: __ZNSt3__128__exception_guard_exceptionsINS_6vectorIdNS_9allocatorIdEEE16__destroy_vectorEEC1B8ue170006ES5_, symObjAddr: 0x29EC, symBinAddr: 0x10000A204, symSize: 0x34 }
  - { offsetInCU: 0xA1F9, offset: 0x15B7A, size: 0x8, addend: 0x0, symName: __ZNSt3__128__exception_guard_exceptionsINS_6vectorIdNS_9allocatorIdEEE16__destroy_vectorEEC2B8ue170006ES5_, symObjAddr: 0x2A20, symBinAddr: 0x10000A238, symSize: 0x24 }
  - { offsetInCU: 0xA231, offset: 0x15BB2, size: 0x8, addend: 0x0, symName: __ZNSt3__16vectorIdNS_9allocatorIdEEE16__destroy_vectorC2B8ue170006ERS3_, symObjAddr: 0x2A44, symBinAddr: 0x10000A25C, symSize: 0x20 }
  - { offsetInCU: 0xA269, offset: 0x15BEA, size: 0x8, addend: 0x0, symName: __ZNKSt3__16vectorIdNS_9allocatorIdEEE8max_sizeEv, symObjAddr: 0x2A64, symBinAddr: 0x10000A27C, symSize: 0x74 }
  - { offsetInCU: 0xA292, offset: 0x15C13, size: 0x8, addend: 0x0, symName: __ZNKSt3__16vectorIdNS_9allocatorIdEEE20__throw_length_errorB8ue170006Ev, symObjAddr: 0x2AD8, symBinAddr: 0x10000A2F0, symSize: 0x1C }
  - { offsetInCU: 0xA2B8, offset: 0x15C39, size: 0x8, addend: 0x0, symName: __ZNSt3__16vectorIdNS_9allocatorIdEEE7__allocB8ue170006Ev, symObjAddr: 0x2B34, symBinAddr: 0x10000A34C, symSize: 0x28 }
  - { offsetInCU: 0xA2DE, offset: 0x15C5F, size: 0x8, addend: 0x0, symName: __ZNSt3__16vectorIdNS_9allocatorIdEEE9__end_capB8ue170006Ev, symObjAddr: 0x2B5C, symBinAddr: 0x10000A374, symSize: 0x28 }
  - { offsetInCU: 0xA304, offset: 0x15C85, size: 0x8, addend: 0x0, symName: __ZNKSt3__16vectorIdNS_9allocatorIdEEE14__annotate_newB8ue170006Em, symObjAddr: 0x2B84, symBinAddr: 0x10000A39C, symSize: 0xAC }
  - { offsetInCU: 0xA339, offset: 0x15CBA, size: 0x8, addend: 0x0, symName: __ZNSt3__116allocator_traitsINS_9allocatorIdEEE8max_sizeB8ue170006IS2_vEEmRKS2_, symObjAddr: 0x2C5C, symBinAddr: 0x10000A448, symSize: 0x24 }
  - { offsetInCU: 0xA367, offset: 0x15CE8, size: 0x8, addend: 0x0, symName: __ZNSt3__114numeric_limitsIlE3maxB8ue170006Ev, symObjAddr: 0x2C80, symBinAddr: 0x10000A46C, symSize: 0x14 }
  - { offsetInCU: 0xA385, offset: 0x15D06, size: 0x8, addend: 0x0, symName: __ZNKSt3__19allocatorIdE8max_sizeB8ue170006Ev, symObjAddr: 0x2D1C, symBinAddr: 0x10000A480, symSize: 0x14 }
  - { offsetInCU: 0xA3AB, offset: 0x15D2C, size: 0x8, addend: 0x0, symName: __ZNSt3__123__libcpp_numeric_limitsIlLb1EE3maxB8ue170006Ev, symObjAddr: 0x2D30, symBinAddr: 0x10000A494, symSize: 0x8 }
  - { offsetInCU: 0xA3BF, offset: 0x15D40, size: 0x8, addend: 0x0, symName: __ZNSt3__19allocatorIdE8allocateB8ue170006Em, symObjAddr: 0x2E1C, symBinAddr: 0x10000A49C, symSize: 0x84 }
  - { offsetInCU: 0xA3F3, offset: 0x15D74, size: 0x8, addend: 0x0, symName: __ZNSt3__117__compressed_pairIPdNS_9allocatorIdEEE6secondB8ue170006Ev, symObjAddr: 0x2F2C, symBinAddr: 0x10000A520, symSize: 0x24 }
  - { offsetInCU: 0xA419, offset: 0x15D9A, size: 0x8, addend: 0x0, symName: __ZNSt3__122__compressed_pair_elemINS_9allocatorIdEELi1ELb1EE5__getB8ue170006Ev, symObjAddr: 0x2F50, symBinAddr: 0x10000A544, symSize: 0x14 }
  - { offsetInCU: 0xA43F, offset: 0x15DC0, size: 0x8, addend: 0x0, symName: __ZNSt3__117__compressed_pairIPdNS_9allocatorIdEEE5firstB8ue170006Ev, symObjAddr: 0x2F64, symBinAddr: 0x10000A558, symSize: 0x24 }
  - { offsetInCU: 0xA465, offset: 0x15DE6, size: 0x8, addend: 0x0, symName: __ZNSt3__122__compressed_pair_elemIPdLi0ELb0EE5__getB8ue170006Ev, symObjAddr: 0x2F88, symBinAddr: 0x10000A57C, symSize: 0x14 }
  - { offsetInCU: 0xA48B, offset: 0x15E0C, size: 0x8, addend: 0x0, symName: __ZNKSt3__16vectorIdNS_9allocatorIdEEE31__annotate_contiguous_containerB8ue170006EPKvS5_S5_S5_, symObjAddr: 0x2F9C, symBinAddr: 0x10000A590, symSize: 0x20 }
  - { offsetInCU: 0xA4E1, offset: 0x15E62, size: 0x8, addend: 0x0, symName: __ZNKSt3__16vectorIdNS_9allocatorIdEEE4dataB8ue170006Ev, symObjAddr: 0x2FBC, symBinAddr: 0x10000A5B0, symSize: 0x28 }
  - { offsetInCU: 0xA507, offset: 0x15E88, size: 0x8, addend: 0x0, symName: __ZNKSt3__16vectorIdNS_9allocatorIdEEE8capacityB8ue170006Ev, symObjAddr: 0x2FE4, symBinAddr: 0x10000A5D8, symSize: 0x40 }
  - { offsetInCU: 0xA52D, offset: 0x15EAE, size: 0x8, addend: 0x0, symName: __ZNKSt3__16vectorIdNS_9allocatorIdEEE9__end_capB8ue170006Ev, symObjAddr: 0x3038, symBinAddr: 0x10000A62C, symSize: 0x28 }
  - { offsetInCU: 0xA553, offset: 0x15ED4, size: 0x8, addend: 0x0, symName: __ZNKSt3__117__compressed_pairIPdNS_9allocatorIdEEE5firstB8ue170006Ev, symObjAddr: 0x3060, symBinAddr: 0x10000A654, symSize: 0x24 }
  - { offsetInCU: 0xA579, offset: 0x15EFA, size: 0x8, addend: 0x0, symName: __ZNKSt3__122__compressed_pair_elemIPdLi0ELb0EE5__getB8ue170006Ev, symObjAddr: 0x3084, symBinAddr: 0x10000A678, symSize: 0x14 }
  - { offsetInCU: 0xA5B8, offset: 0x15F39, size: 0x8, addend: 0x0, symName: __ZNSt3__16vectorIdNS_9allocatorIdEEE21_ConstructTransactionC1B8ue170006ERS3_m, symObjAddr: 0x3098, symBinAddr: 0x10000A68C, symSize: 0x3C }
  - { offsetInCU: 0xA600, offset: 0x15F81, size: 0x8, addend: 0x0, symName: __ZNSt3__16vectorIdNS_9allocatorIdEEE21_ConstructTransactionD1B8ue170006Ev, symObjAddr: 0x3154, symBinAddr: 0x10000A748, symSize: 0x2C }
  - { offsetInCU: 0xA62A, offset: 0x15FAB, size: 0x8, addend: 0x0, symName: __ZNSt3__16vectorIdNS_9allocatorIdEEE21_ConstructTransactionC2B8ue170006ERS3_m, symObjAddr: 0x3180, symBinAddr: 0x10000A774, symSize: 0x44 }
  - { offsetInCU: 0xA68B, offset: 0x1600C, size: 0x8, addend: 0x0, symName: __ZNSt3__14pairIPdS1_EC1B8ue170006ERKS1_S4_, symObjAddr: 0x33CC, symBinAddr: 0x10000A9C0, symSize: 0x3C }
  - { offsetInCU: 0xA6D1, offset: 0x16052, size: 0x8, addend: 0x0, symName: __ZNSt3__14pairIPdS1_EC2B8ue170006ERKS1_S4_, symObjAddr: 0x3408, symBinAddr: 0x10000A9FC, symSize: 0x34 }
  - { offsetInCU: 0xA717, offset: 0x16098, size: 0x8, addend: 0x0, symName: __ZNSt3__129_AllocatorDestroyRangeReverseINS_9allocatorIdEEPdEC1B8ue170006ERS2_RS3_S6_, symObjAddr: 0x3488, symBinAddr: 0x10000AA7C, symSize: 0x44 }
  - { offsetInCU: 0xA76E, offset: 0x160EF, size: 0x8, addend: 0x0, symName: __ZNSt3__116allocator_traitsINS_9allocatorIdEEE9constructB8ue170006IdJRdEvEEvRS2_PT_DpOT0_, symObjAddr: 0x34CC, symBinAddr: 0x10000AAC0, symSize: 0x34 }
  - { offsetInCU: 0xA7C5, offset: 0x16146, size: 0x8, addend: 0x0, symName: __ZNSt3__128__exception_guard_exceptionsINS_29_AllocatorDestroyRangeReverseINS_9allocatorIdEEPdEEE10__completeB8ue170006Ev, symObjAddr: 0x3500, symBinAddr: 0x10000AAF4, symSize: 0x1C }
  - { offsetInCU: 0xA7EB, offset: 0x1616C, size: 0x8, addend: 0x0, symName: __ZNSt3__128__exception_guard_exceptionsINS_29_AllocatorDestroyRangeReverseINS_9allocatorIdEEPdEEED1B8ue170006Ev, symObjAddr: 0x351C, symBinAddr: 0x10000AB10, symSize: 0x2C }
  - { offsetInCU: 0xA815, offset: 0x16196, size: 0x8, addend: 0x0, symName: __ZNSt3__128__exception_guard_exceptionsINS_29_AllocatorDestroyRangeReverseINS_9allocatorIdEEPdEEEC1B8ue170006ES5_, symObjAddr: 0x3548, symBinAddr: 0x10000AB3C, symSize: 0x34 }
  - { offsetInCU: 0xA84E, offset: 0x161CF, size: 0x8, addend: 0x0, symName: __ZNSt3__128__exception_guard_exceptionsINS_29_AllocatorDestroyRangeReverseINS_9allocatorIdEEPdEEEC2B8ue170006ES5_, symObjAddr: 0x357C, symBinAddr: 0x10000AB70, symSize: 0x30 }
  - { offsetInCU: 0xA887, offset: 0x16208, size: 0x8, addend: 0x0, symName: __ZNSt3__129_AllocatorDestroyRangeReverseINS_9allocatorIdEEPdEC2B8ue170006ERS2_RS3_S6_, symObjAddr: 0x35AC, symBinAddr: 0x10000ABA0, symSize: 0x38 }
  - { offsetInCU: 0xA8DE, offset: 0x1625F, size: 0x8, addend: 0x0, symName: __ZNSt3__19allocatorIdE9constructB8ue170006IdJRdEEEvPT_DpOT0_, symObjAddr: 0x35E4, symBinAddr: 0x10000ABD8, symSize: 0x28 }
  - { offsetInCU: 0xA934, offset: 0x162B5, size: 0x8, addend: 0x0, symName: __ZNSt3__128__exception_guard_exceptionsINS_29_AllocatorDestroyRangeReverseINS_9allocatorIdEEPdEEED2B8ue170006Ev, symObjAddr: 0x360C, symBinAddr: 0x10000AC00, symSize: 0x48 }
  - { offsetInCU: 0xA95E, offset: 0x162DF, size: 0x8, addend: 0x0, symName: __ZNKSt3__129_AllocatorDestroyRangeReverseINS_9allocatorIdEEPdEclB8ue170006Ev, symObjAddr: 0x3654, symBinAddr: 0x10000AC48, symSize: 0x68 }
  - { offsetInCU: 0xA984, offset: 0x16305, size: 0x8, addend: 0x0, symName: __ZNSt3__116reverse_iteratorIPdEC1B8ue170006ES1_, symObjAddr: 0x372C, symBinAddr: 0x10000AD20, symSize: 0x34 }
  - { offsetInCU: 0xA9BC, offset: 0x1633D, size: 0x8, addend: 0x0, symName: __ZNSt3__116allocator_traitsINS_9allocatorIdEEE7destroyB8ue170006IdvEEvRS2_PT_, symObjAddr: 0x37A8, symBinAddr: 0x10000AD9C, symSize: 0x2C }
  - { offsetInCU: 0xA9F9, offset: 0x1637A, size: 0x8, addend: 0x0, symName: __ZNSt3__116reverse_iteratorIPdEppB8ue170006Ev, symObjAddr: 0x37F8, symBinAddr: 0x10000ADEC, symSize: 0x20 }
  - { offsetInCU: 0xAA1F, offset: 0x163A0, size: 0x8, addend: 0x0, symName: __ZNKSt3__116reverse_iteratorIPdE4baseB8ue170006Ev, symObjAddr: 0x3818, symBinAddr: 0x10000AE0C, symSize: 0x18 }
  - { offsetInCU: 0xAA45, offset: 0x163C6, size: 0x8, addend: 0x0, symName: __ZNSt3__19allocatorIdE7destroyB8ue170006EPd, symObjAddr: 0x3830, symBinAddr: 0x10000AE24, symSize: 0x14 }
  - { offsetInCU: 0xAA7E, offset: 0x163FF, size: 0x8, addend: 0x0, symName: __ZNSt3__119__to_address_helperINS_16reverse_iteratorIPdEEvE6__callB8ue170006ERKS3_, symObjAddr: 0x3844, symBinAddr: 0x10000AE38, symSize: 0x4C }
  - { offsetInCU: 0xAAA1, offset: 0x16422, size: 0x8, addend: 0x0, symName: __ZNKSt3__116reverse_iteratorIPdEptB8ue170006Ev, symObjAddr: 0x3890, symBinAddr: 0x10000AE84, symSize: 0x24 }
  - { offsetInCU: 0xAAC7, offset: 0x16448, size: 0x8, addend: 0x0, symName: __ZNKSt3__116reverse_iteratorIPdEdeB8ue170006Ev, symObjAddr: 0x38B4, symBinAddr: 0x10000AEA8, symSize: 0x28 }
  - { offsetInCU: 0xAAFB, offset: 0x1647C, size: 0x8, addend: 0x0, symName: __ZNSt3__116reverse_iteratorIPdEC2B8ue170006ES1_, symObjAddr: 0x38DC, symBinAddr: 0x10000AED0, symSize: 0x28 }
  - { offsetInCU: 0xAB33, offset: 0x164B4, size: 0x8, addend: 0x0, symName: __ZNSt3__118__unwrap_iter_implIPdLb1EE8__unwrapB8ue170006ES1_, symObjAddr: 0x3904, symBinAddr: 0x10000AEF8, symSize: 0x24 }
  - { offsetInCU: 0xAB56, offset: 0x164D7, size: 0x8, addend: 0x0, symName: __ZNSt3__118__unwrap_iter_implIPdLb1EE8__rewrapB8ue170006ES1_S1_, symObjAddr: 0x3928, symBinAddr: 0x10000AF1C, symSize: 0x50 }
  - { offsetInCU: 0xAB87, offset: 0x16508, size: 0x8, addend: 0x0, symName: __ZNSt3__16vectorIdNS_9allocatorIdEEE21_ConstructTransactionD2B8ue170006Ev, symObjAddr: 0x3978, symBinAddr: 0x10000AF6C, symSize: 0x20 }
  - { offsetInCU: 0xABB1, offset: 0x16532, size: 0x8, addend: 0x0, symName: __ZNSt3__128__exception_guard_exceptionsINS_6vectorIdNS_9allocatorIdEEE16__destroy_vectorEED2B8ue170006Ev, symObjAddr: 0x3998, symBinAddr: 0x10000AF8C, symSize: 0x48 }
  - { offsetInCU: 0xABDB, offset: 0x1655C, size: 0x8, addend: 0x0, symName: __ZNSt3__16vectorIdNS_9allocatorIdEEE16__destroy_vectorclB8ue170006Ev, symObjAddr: 0x39E0, symBinAddr: 0x10000AFD4, symSize: 0x90 }
  - { offsetInCU: 0xAC01, offset: 0x16582, size: 0x8, addend: 0x0, symName: __ZNSt3__16vectorIdNS_9allocatorIdEEE7__clearB8ue170006Ev, symObjAddr: 0x3A70, symBinAddr: 0x10000B064, symSize: 0x28 }
  - { offsetInCU: 0xAC27, offset: 0x165A8, size: 0x8, addend: 0x0, symName: __ZNKSt3__16vectorIdNS_9allocatorIdEEE17__annotate_deleteB8ue170006Ev, symObjAddr: 0x3A98, symBinAddr: 0x10000B08C, symSize: 0xB8 }
  - { offsetInCU: 0xAC4D, offset: 0x165CE, size: 0x8, addend: 0x0, symName: __ZNSt3__116allocator_traitsINS_9allocatorIdEEE10deallocateB8ue170006ERS2_Pdm, symObjAddr: 0x3B50, symBinAddr: 0x10000B144, symSize: 0x34 }
  - { offsetInCU: 0xAC8F, offset: 0x16610, size: 0x8, addend: 0x0, symName: __ZNSt3__16vectorIdNS_9allocatorIdEEE22__base_destruct_at_endB8ue170006EPd, symObjAddr: 0x3B84, symBinAddr: 0x10000B178, symSize: 0xA0 }
  - { offsetInCU: 0xACD3, offset: 0x16654, size: 0x8, addend: 0x0, symName: __ZNSt3__19allocatorIdE10deallocateB8ue170006EPdm, symObjAddr: 0x3C24, symBinAddr: 0x10000B218, symSize: 0x70 }
  - { offsetInCU: 0xAD15, offset: 0x16696, size: 0x8, addend: 0x0, symName: __ZNSt3__128__exception_guard_exceptionsINS_29_AllocatorDestroyRangeReverseINS_9allocatorINS_6vectorIdNS2_IdEEEEEEPS5_EEED2B8ue170006Ev, symObjAddr: 0x3D10, symBinAddr: 0x10000B288, symSize: 0x48 }
  - { offsetInCU: 0xAD3F, offset: 0x166C0, size: 0x8, addend: 0x0, symName: __ZNKSt3__129_AllocatorDestroyRangeReverseINS_9allocatorINS_6vectorIdNS1_IdEEEEEEPS4_EclB8ue170006Ev, symObjAddr: 0x3D58, symBinAddr: 0x10000B2D0, symSize: 0x68 }
  - { offsetInCU: 0xAD65, offset: 0x166E6, size: 0x8, addend: 0x0, symName: __ZNSt3__116reverse_iteratorIPNS_6vectorIdNS_9allocatorIdEEEEEC1B8ue170006ES5_, symObjAddr: 0x3E30, symBinAddr: 0x10000B3A8, symSize: 0x34 }
  - { offsetInCU: 0xAD9D, offset: 0x1671E, size: 0x8, addend: 0x0, symName: __ZNSt3__116allocator_traitsINS_9allocatorINS_6vectorIdNS1_IdEEEEEEE7destroyB8ue170006IS4_vEEvRS5_PT_, symObjAddr: 0x3EAC, symBinAddr: 0x10000B424, symSize: 0x2C }
  - { offsetInCU: 0xADDA, offset: 0x1675B, size: 0x8, addend: 0x0, symName: __ZNSt3__116reverse_iteratorIPNS_6vectorIdNS_9allocatorIdEEEEEppB8ue170006Ev, symObjAddr: 0x3EFC, symBinAddr: 0x10000B474, symSize: 0x20 }
  - { offsetInCU: 0xAE00, offset: 0x16781, size: 0x8, addend: 0x0, symName: __ZNKSt3__116reverse_iteratorIPNS_6vectorIdNS_9allocatorIdEEEEE4baseB8ue170006Ev, symObjAddr: 0x3F1C, symBinAddr: 0x10000B494, symSize: 0x18 }
  - { offsetInCU: 0xAE26, offset: 0x167A7, size: 0x8, addend: 0x0, symName: __ZNSt3__19allocatorINS_6vectorIdNS0_IdEEEEE7destroyB8ue170006EPS3_, symObjAddr: 0x3F34, symBinAddr: 0x10000B4AC, symSize: 0x28 }
  - { offsetInCU: 0xAE5F, offset: 0x167E0, size: 0x8, addend: 0x0, symName: __ZNSt3__119__to_address_helperINS_16reverse_iteratorIPNS_6vectorIdNS_9allocatorIdEEEEEEvE6__callB8ue170006ERKS7_, symObjAddr: 0x3F5C, symBinAddr: 0x10000B4D4, symSize: 0x4C }
  - { offsetInCU: 0xAE82, offset: 0x16803, size: 0x8, addend: 0x0, symName: __ZNKSt3__116reverse_iteratorIPNS_6vectorIdNS_9allocatorIdEEEEEptB8ue170006Ev, symObjAddr: 0x3FA8, symBinAddr: 0x10000B520, symSize: 0x24 }
  - { offsetInCU: 0xAEA8, offset: 0x16829, size: 0x8, addend: 0x0, symName: __ZNKSt3__116reverse_iteratorIPNS_6vectorIdNS_9allocatorIdEEEEEdeB8ue170006Ev, symObjAddr: 0x3FCC, symBinAddr: 0x10000B544, symSize: 0x28 }
  - { offsetInCU: 0xAEDC, offset: 0x1685D, size: 0x8, addend: 0x0, symName: __ZNSt3__116reverse_iteratorIPNS_6vectorIdNS_9allocatorIdEEEEEC2B8ue170006ES5_, symObjAddr: 0x3FF4, symBinAddr: 0x10000B56C, symSize: 0x28 }
  - { offsetInCU: 0xAF14, offset: 0x16895, size: 0x8, addend: 0x0, symName: __ZNSt3__118__unwrap_iter_implIPNS_6vectorIdNS_9allocatorIdEEEELb1EE8__unwrapB8ue170006ES5_, symObjAddr: 0x401C, symBinAddr: 0x10000B594, symSize: 0x24 }
  - { offsetInCU: 0xAF37, offset: 0x168B8, size: 0x8, addend: 0x0, symName: __ZNSt3__118__unwrap_iter_implIPNS_6vectorIdNS_9allocatorIdEEEELb1EE8__rewrapB8ue170006ES5_S5_, symObjAddr: 0x4040, symBinAddr: 0x10000B5B8, symSize: 0x58 }
  - { offsetInCU: 0xAF68, offset: 0x168E9, size: 0x8, addend: 0x0, symName: __ZNSt3__117__compressed_pairIPNS_6vectorIdNS_9allocatorIdEEEENS2_IS4_EEE6secondB8ue170006Ev, symObjAddr: 0x4098, symBinAddr: 0x10000B610, symSize: 0x24 }
  - { offsetInCU: 0xAF8E, offset: 0x1690F, size: 0x8, addend: 0x0, symName: __ZNSt3__122__compressed_pair_elemINS_9allocatorINS_6vectorIdNS1_IdEEEEEELi1ELb1EE5__getB8ue170006Ev, symObjAddr: 0x40BC, symBinAddr: 0x10000B634, symSize: 0x14 }
  - { offsetInCU: 0xAFB4, offset: 0x16935, size: 0x8, addend: 0x0, symName: __ZNSt3__16vectorINS0_IdNS_9allocatorIdEEEENS1_IS3_EEE21_ConstructTransactionD2B8ue170006Ev, symObjAddr: 0x40D0, symBinAddr: 0x10000B648, symSize: 0x20 }
  - { offsetInCU: 0xAFE8, offset: 0x16969, size: 0x8, addend: 0x0, symName: __ZNKSt3__111__copy_loopINS_17_ClassicAlgPolicyEEclB8ue170006IPNS_6vectorIdNS_9allocatorIdEEEES8_S8_EENS_4pairIT_T1_EESA_T0_SB_, symObjAddr: 0x41E8, symBinAddr: 0x10000B760, symSize: 0x88 }
  - { offsetInCU: 0xB052, offset: 0x169D3, size: 0x8, addend: 0x0, symName: __ZNSt3__16vectorIdNS_9allocatorIdEEEaSB8ue170006ERKS3_, symObjAddr: 0x429C, symBinAddr: 0x10000B814, symSize: 0x68 }
  - { offsetInCU: 0xB08A, offset: 0x16A0B, size: 0x8, addend: 0x0, symName: __ZNSt3__16vectorIdNS_9allocatorIdEEE19__copy_assign_allocB8ue170006ERKS3_, symObjAddr: 0x4304, symBinAddr: 0x10000B87C, symSize: 0x2C }
  - { offsetInCU: 0xB0BE, offset: 0x16A3F, size: 0x8, addend: 0x0, symName: __ZNSt3__16vectorIdNS_9allocatorIdEEE6assignIPdLi0EEEvT_S6_, symObjAddr: 0x4330, symBinAddr: 0x10000B8A8, symSize: 0x5C }
  - { offsetInCU: 0xB114, offset: 0x16A95, size: 0x8, addend: 0x0, symName: __ZNSt3__16vectorIdNS_9allocatorIdEEE19__copy_assign_allocB8ue170006ERKS3_NS_17integral_constantIbLb0EEE, symObjAddr: 0x438C, symBinAddr: 0x10000B904, symSize: 0x14 }
  - { offsetInCU: 0xB151, offset: 0x16AD2, size: 0x8, addend: 0x0, symName: __ZNSt3__16vectorIdNS_9allocatorIdEEE18__assign_with_sizeB8ue170006IPdS5_EEvT_T0_l, symObjAddr: 0x43A0, symBinAddr: 0x10000B918, symSize: 0x164 }
  - { offsetInCU: 0xB202, offset: 0x16B83, size: 0x8, addend: 0x0, symName: __ZNSt3__16vectorIdNS_9allocatorIdEEE17__destruct_at_endB8ue170006EPd, symObjAddr: 0x45E8, symBinAddr: 0x10000BB60, symSize: 0x4C }
  - { offsetInCU: 0xB245, offset: 0x16BC6, size: 0x8, addend: 0x0, symName: __ZNSt3__16vectorIdNS_9allocatorIdEEE13__vdeallocateEv, symObjAddr: 0x4634, symBinAddr: 0x10000BBAC, symSize: 0x94 }
  - { offsetInCU: 0xB26D, offset: 0x16BEE, size: 0x8, addend: 0x0, symName: __ZNKSt3__16vectorIdNS_9allocatorIdEEE11__recommendB8ue170006Em, symObjAddr: 0x46C8, symBinAddr: 0x10000BC40, symSize: 0xB4 }
  - { offsetInCU: 0xB2CD, offset: 0x16C4E, size: 0x8, addend: 0x0, symName: __ZNKSt3__114__copy_trivialclB8ue170006IddLi0EEENS_4pairIPT_PT0_EES4_S4_S6_, symObjAddr: 0x48D4, symBinAddr: 0x10000BE4C, symSize: 0x48 }
  - { offsetInCU: 0xB335, offset: 0x16CB6, size: 0x8, addend: 0x0, symName: __ZNKSt3__16vectorIdNS_9allocatorIdEEE17__annotate_shrinkB8ue170006Em, symObjAddr: 0x4AA0, symBinAddr: 0x10000C018, symSize: 0xB4 }
  - { offsetInCU: 0xB36A, offset: 0x16CEB, size: 0x8, addend: 0x0, symName: __ZNSt3__16vectorIdNS_9allocatorIdEEE5clearB8ue170006Ev, symObjAddr: 0x4B54, symBinAddr: 0x10000C0CC, symSize: 0x44 }
  - { offsetInCU: 0xB39F, offset: 0x16D20, size: 0x8, addend: 0x0, symName: __ZNSt3__16vectorINS0_IdNS_9allocatorIdEEEENS1_IS3_EEE22__base_destruct_at_endB8ue170006EPS3_, symObjAddr: 0x4C40, symBinAddr: 0x10000C1B8, symSize: 0xA0 }
  - { offsetInCU: 0xB3E3, offset: 0x16D64, size: 0x8, addend: 0x0, symName: __ZNKSt3__16vectorINS0_IdNS_9allocatorIdEEEENS1_IS3_EEE17__annotate_shrinkB8ue170006Em, symObjAddr: 0x4CE0, symBinAddr: 0x10000C258, symSize: 0xD0 }
  - { offsetInCU: 0xB418, offset: 0x16D99, size: 0x8, addend: 0x0, symName: __ZNKSt3__16vectorINS0_IdNS_9allocatorIdEEEENS1_IS3_EEE31__annotate_contiguous_containerB8ue170006EPKvS7_S7_S7_, symObjAddr: 0x4DB0, symBinAddr: 0x10000C328, symSize: 0x20 }
  - { offsetInCU: 0xB46E, offset: 0x16DEF, size: 0x8, addend: 0x0, symName: __ZNKSt3__16vectorINS0_IdNS_9allocatorIdEEEENS1_IS3_EEE4dataB8ue170006Ev, symObjAddr: 0x4DD0, symBinAddr: 0x10000C348, symSize: 0x28 }
  - { offsetInCU: 0xB494, offset: 0x16E15, size: 0x8, addend: 0x0, symName: __ZNSt3__16vectorINS0_IdNS_9allocatorIdEEEENS1_IS3_EEE5clearB8ue170006Ev, symObjAddr: 0x4DF8, symBinAddr: 0x10000C370, symSize: 0x44 }
  - { offsetInCU: 0xB4C9, offset: 0x16E4A, size: 0x8, addend: 0x0, symName: __ZNKSt3__16vectorINS0_IdNS_9allocatorIdEEEENS1_IS3_EEE17__annotate_deleteB8ue170006Ev, symObjAddr: 0x4E3C, symBinAddr: 0x10000C3B4, symSize: 0xD4 }
  - { offsetInCU: 0xB4EF, offset: 0x16E70, size: 0x8, addend: 0x0, symName: __ZNSt3__116allocator_traitsINS_9allocatorINS_6vectorIdNS1_IdEEEEEEE10deallocateB8ue170006ERS5_PS4_m, symObjAddr: 0x4F10, symBinAddr: 0x10000C488, symSize: 0x34 }
  - { offsetInCU: 0xB531, offset: 0x16EB2, size: 0x8, addend: 0x0, symName: __ZNSt3__16vectorINS0_IdNS_9allocatorIdEEEENS1_IS3_EEE9__end_capB8ue170006Ev, symObjAddr: 0x4F44, symBinAddr: 0x10000C4BC, symSize: 0x28 }
  - { offsetInCU: 0xB557, offset: 0x16ED8, size: 0x8, addend: 0x0, symName: __ZNSt3__16vectorINS0_IdNS_9allocatorIdEEEENS1_IS3_EEE7__clearB8ue170006Ev, symObjAddr: 0x4F6C, symBinAddr: 0x10000C4E4, symSize: 0x28 }
  - { offsetInCU: 0xB57D, offset: 0x16EFE, size: 0x8, addend: 0x0, symName: __ZNSt3__19allocatorINS_6vectorIdNS0_IdEEEEE10deallocateB8ue170006EPS3_m, symObjAddr: 0x4F94, symBinAddr: 0x10000C50C, symSize: 0x74 }
  - { offsetInCU: 0xB5BF, offset: 0x16F40, size: 0x8, addend: 0x0, symName: __ZNSt3__117__compressed_pairIPNS_6vectorIdNS_9allocatorIdEEEENS2_IS4_EEE5firstB8ue170006Ev, symObjAddr: 0x5008, symBinAddr: 0x10000C580, symSize: 0x24 }
  - { offsetInCU: 0xB5E5, offset: 0x16F66, size: 0x8, addend: 0x0, symName: __ZNSt3__122__compressed_pair_elemIPNS_6vectorIdNS_9allocatorIdEEEELi0ELb0EE5__getB8ue170006Ev, symObjAddr: 0x502C, symBinAddr: 0x10000C5A4, symSize: 0x14 }
  - { offsetInCU: 0xB60A, offset: 0x16F8B, size: 0x8, addend: 0x0, symName: __ZNKSt3__16vectorINS0_IdNS_9allocatorIdEEEENS1_IS3_EEE8max_sizeEv, symObjAddr: 0x5040, symBinAddr: 0x10000C5B8, symSize: 0x74 }
  - { offsetInCU: 0xB633, offset: 0x16FB4, size: 0x8, addend: 0x0, symName: __ZNKSt3__16vectorINS0_IdNS_9allocatorIdEEEENS1_IS3_EEE20__throw_length_errorB8ue170006Ev, symObjAddr: 0x50B4, symBinAddr: 0x10000C62C, symSize: 0x1C }
  - { offsetInCU: 0xB659, offset: 0x16FDA, size: 0x8, addend: 0x0, symName: __ZNKSt3__16vectorINS0_IdNS_9allocatorIdEEEENS1_IS3_EEE14__annotate_newB8ue170006Em, symObjAddr: 0x5110, symBinAddr: 0x10000C688, symSize: 0xC8 }
  - { offsetInCU: 0xB698, offset: 0x17019, size: 0x8, addend: 0x0, symName: __ZNSt3__116allocator_traitsINS_9allocatorINS_6vectorIdNS1_IdEEEEEEE8max_sizeB8ue170006IS5_vEEmRKS5_, symObjAddr: 0x51D8, symBinAddr: 0x10000C750, symSize: 0x24 }
  - { offsetInCU: 0xB6C6, offset: 0x17047, size: 0x8, addend: 0x0, symName: __ZNKSt3__16vectorINS0_IdNS_9allocatorIdEEEENS1_IS3_EEE7__allocB8ue170006Ev, symObjAddr: 0x51FC, symBinAddr: 0x10000C774, symSize: 0x28 }
  - { offsetInCU: 0xB6EC, offset: 0x1706D, size: 0x8, addend: 0x0, symName: __ZNKSt3__19allocatorINS_6vectorIdNS0_IdEEEEE8max_sizeB8ue170006Ev, symObjAddr: 0x5224, symBinAddr: 0x10000C79C, symSize: 0x18 }
  - { offsetInCU: 0xB712, offset: 0x17093, size: 0x8, addend: 0x0, symName: __ZNKSt3__117__compressed_pairIPNS_6vectorIdNS_9allocatorIdEEEENS2_IS4_EEE6secondB8ue170006Ev, symObjAddr: 0x523C, symBinAddr: 0x10000C7B4, symSize: 0x24 }
  - { offsetInCU: 0xB738, offset: 0x170B9, size: 0x8, addend: 0x0, symName: __ZNKSt3__122__compressed_pair_elemINS_9allocatorINS_6vectorIdNS1_IdEEEEEELi1ELb1EE5__getB8ue170006Ev, symObjAddr: 0x5260, symBinAddr: 0x10000C7D8, symSize: 0x14 }
  - { offsetInCU: 0xB75E, offset: 0x170DF, size: 0x8, addend: 0x0, symName: __ZNSt3__19allocatorINS_6vectorIdNS0_IdEEEEE8allocateB8ue170006Em, symObjAddr: 0x5274, symBinAddr: 0x10000C7EC, symSize: 0x8C }
  - { offsetInCU: 0xB792, offset: 0x17113, size: 0x8, addend: 0x0, symName: __ZNSt3__16vectorINS0_IdNS_9allocatorIdEEEENS1_IS3_EEEC2ERKS5_, symObjAddr: 0x5328, symBinAddr: 0x10000C8A0, symSize: 0x94 }
  - { offsetInCU: 0xB7CD, offset: 0x1714E, size: 0x8, addend: 0x0, symName: __ZNSt3__116allocator_traitsINS_9allocatorINS_6vectorIdNS1_IdEEEEEEE37select_on_container_copy_constructionB8ue170006IS5_vvEES5_RKS5_, symObjAddr: 0x53BC, symBinAddr: 0x10000C934, symSize: 0x10 }
  - { offsetInCU: 0xB801, offset: 0x17182, size: 0x8, addend: 0x0, symName: __ZNSt3__117__compressed_pairIPNS_6vectorIdNS_9allocatorIdEEEENS2_IS4_EEEC1B8ue170006IDnS6_EEOT_OT0_, symObjAddr: 0x53CC, symBinAddr: 0x10000C944, symSize: 0x3C }
  - { offsetInCU: 0xB859, offset: 0x171DA, size: 0x8, addend: 0x0, symName: __ZNSt3__16vectorINS0_IdNS_9allocatorIdEEEENS1_IS3_EEE16__init_with_sizeB8ue170006IPS3_S7_EEvT_T0_m, symObjAddr: 0x5408, symBinAddr: 0x10000C980, symSize: 0xC0 }
  - { offsetInCU: 0xB8CD, offset: 0x1724E, size: 0x8, addend: 0x0, symName: __ZNSt3__117__compressed_pairIPNS_6vectorIdNS_9allocatorIdEEEENS2_IS4_EEEC2B8ue170006IDnS6_EEOT_OT0_, symObjAddr: 0x54C8, symBinAddr: 0x10000CA40, symSize: 0x44 }
  - { offsetInCU: 0xB925, offset: 0x172A6, size: 0x8, addend: 0x0, symName: __ZNSt3__122__compressed_pair_elemIPNS_6vectorIdNS_9allocatorIdEEEELi0ELb0EEC2B8ue170006IDnvEEOT_, symObjAddr: 0x550C, symBinAddr: 0x10000CA84, symSize: 0x1C }
  - { offsetInCU: 0xB967, offset: 0x172E8, size: 0x8, addend: 0x0, symName: __ZNSt3__122__compressed_pair_elemINS_9allocatorINS_6vectorIdNS1_IdEEEEEELi1ELb1EEC2B8ue170006IS5_vEEOT_, symObjAddr: 0x5528, symBinAddr: 0x10000CAA0, symSize: 0x18 }
  - { offsetInCU: 0xB9A9, offset: 0x1732A, size: 0x8, addend: 0x0, symName: __ZNSt3__16vectorINS0_IdNS_9allocatorIdEEEENS1_IS3_EEE16__destroy_vectorC1B8ue170006ERS5_, symObjAddr: 0x5580, symBinAddr: 0x10000CAF8, symSize: 0x34 }
  - { offsetInCU: 0xB9E2, offset: 0x17363, size: 0x8, addend: 0x0, symName: __ZNSt3__128__exception_guard_exceptionsINS_6vectorINS1_IdNS_9allocatorIdEEEENS2_IS4_EEE16__destroy_vectorEE10__completeB8ue170006Ev, symObjAddr: 0x55B4, symBinAddr: 0x10000CB2C, symSize: 0x1C }
  - { offsetInCU: 0xBA08, offset: 0x17389, size: 0x8, addend: 0x0, symName: __ZNSt3__128__exception_guard_exceptionsINS_6vectorINS1_IdNS_9allocatorIdEEEENS2_IS4_EEE16__destroy_vectorEED1B8ue170006Ev, symObjAddr: 0x55D0, symBinAddr: 0x10000CB48, symSize: 0x2C }
  - { offsetInCU: 0xBA32, offset: 0x173B3, size: 0x8, addend: 0x0, symName: __ZNSt3__128__exception_guard_exceptionsINS_6vectorINS1_IdNS_9allocatorIdEEEENS2_IS4_EEE16__destroy_vectorEEC1B8ue170006ES7_, symObjAddr: 0x55FC, symBinAddr: 0x10000CB74, symSize: 0x34 }
  - { offsetInCU: 0xBA6A, offset: 0x173EB, size: 0x8, addend: 0x0, symName: __ZNSt3__128__exception_guard_exceptionsINS_6vectorINS1_IdNS_9allocatorIdEEEENS2_IS4_EEE16__destroy_vectorEEC2B8ue170006ES7_, symObjAddr: 0x5630, symBinAddr: 0x10000CBA8, symSize: 0x24 }
  - { offsetInCU: 0xBAA2, offset: 0x17423, size: 0x8, addend: 0x0, symName: __ZNSt3__16vectorINS0_IdNS_9allocatorIdEEEENS1_IS3_EEE16__destroy_vectorC2B8ue170006ERS5_, symObjAddr: 0x5654, symBinAddr: 0x10000CBCC, symSize: 0x20 }
  - { offsetInCU: 0xBADB, offset: 0x1745C, size: 0x8, addend: 0x0, symName: __ZNSt3__128__exception_guard_exceptionsINS_6vectorINS1_IdNS_9allocatorIdEEEENS2_IS4_EEE16__destroy_vectorEED2B8ue170006Ev, symObjAddr: 0x5674, symBinAddr: 0x10000CBEC, symSize: 0x48 }
  - { offsetInCU: 0xBB05, offset: 0x17486, size: 0x8, addend: 0x0, symName: __ZNSt3__16vectorINS0_IdNS_9allocatorIdEEEENS1_IS3_EEE16__destroy_vectorclB8ue170006Ev, symObjAddr: 0x56BC, symBinAddr: 0x10000CC34, symSize: 0x90 }
  - { offsetInCU: 0xBB2B, offset: 0x174AC, size: 0x8, addend: 0x0, symName: __ZNSt3__16vectorINS0_IdNS_9allocatorIdEEEENS1_IS3_EEEC2B8ue170006Ev, symObjAddr: 0x574C, symBinAddr: 0x10000CCC4, symSize: 0x44 }
  - { offsetInCU: 0xBB5A, offset: 0x174DB, size: 0x8, addend: 0x0, symName: __ZNSt3__117__compressed_pairIPNS_6vectorIdNS_9allocatorIdEEEENS2_IS4_EEEC1B8ue170006IDnNS_18__default_init_tagEEEOT_OT0_, symObjAddr: 0x5790, symBinAddr: 0x10000CD08, symSize: 0x3C }
  - { offsetInCU: 0xBBB2, offset: 0x17533, size: 0x8, addend: 0x0, symName: __ZNSt3__117__compressed_pairIPNS_6vectorIdNS_9allocatorIdEEEENS2_IS4_EEEC2B8ue170006IDnNS_18__default_init_tagEEEOT_OT0_, symObjAddr: 0x57CC, symBinAddr: 0x10000CD44, symSize: 0x40 }
  - { offsetInCU: 0xBC0A, offset: 0x1758B, size: 0x8, addend: 0x0, symName: __ZNSt3__122__compressed_pair_elemINS_9allocatorINS_6vectorIdNS1_IdEEEEEELi1ELb1EEC2B8ue170006ENS_18__default_init_tagE, symObjAddr: 0x580C, symBinAddr: 0x10000CD84, symSize: 0x2C }
  - { offsetInCU: 0xBC3F, offset: 0x175C0, size: 0x8, addend: 0x0, symName: __ZNSt3__19allocatorINS_6vectorIdNS0_IdEEEEEC2B8ue170006Ev, symObjAddr: 0x5838, symBinAddr: 0x10000CDB0, symSize: 0x2C }
  - { offsetInCU: 0xBC69, offset: 0x175EA, size: 0x8, addend: 0x0, symName: __ZNSt3__116__non_trivial_ifILb1ENS_9allocatorINS_6vectorIdNS1_IdEEEEEEEC2B8ue170006Ev, symObjAddr: 0x5864, symBinAddr: 0x10000CDDC, symSize: 0x14 }
  - { offsetInCU: 0xBC93, offset: 0x17614, size: 0x8, addend: 0x0, symName: __ZNSt3__16vectorINS0_IdNS_9allocatorIdEEEENS1_IS3_EEED2B8ue170006Ev, symObjAddr: 0x5878, symBinAddr: 0x10000CDF0, symSize: 0x3C }
  - { offsetInCU: 0xBCBD, offset: 0x1763E, size: 0x8, addend: 0x0, symName: __ZNSt3__16vectorIdNS_9allocatorIdEEEC2B8ue170006Ev, symObjAddr: 0x58B4, symBinAddr: 0x10000CE2C, symSize: 0x44 }
  - { offsetInCU: 0xBCE7, offset: 0x17668, size: 0x8, addend: 0x0, symName: __ZNSt3__117__compressed_pairIPdNS_9allocatorIdEEEC1B8ue170006IDnNS_18__default_init_tagEEEOT_OT0_, symObjAddr: 0x58F8, symBinAddr: 0x10000CE70, symSize: 0x3C }
  - { offsetInCU: 0xBD3F, offset: 0x176C0, size: 0x8, addend: 0x0, symName: __ZNSt3__117__compressed_pairIPdNS_9allocatorIdEEEC2B8ue170006IDnNS_18__default_init_tagEEEOT_OT0_, symObjAddr: 0x5934, symBinAddr: 0x10000CEAC, symSize: 0x40 }
  - { offsetInCU: 0xBD97, offset: 0x17718, size: 0x8, addend: 0x0, symName: __ZNSt3__122__compressed_pair_elemINS_9allocatorIdEELi1ELb1EEC2B8ue170006ENS_18__default_init_tagE, symObjAddr: 0x5974, symBinAddr: 0x10000CEEC, symSize: 0x2C }
  - { offsetInCU: 0xBDCC, offset: 0x1774D, size: 0x8, addend: 0x0, symName: __ZNSt3__19allocatorIdEC2B8ue170006Ev, symObjAddr: 0x59A0, symBinAddr: 0x10000CF18, symSize: 0x2C }
  - { offsetInCU: 0xBDF6, offset: 0x17777, size: 0x8, addend: 0x0, symName: __ZNSt3__116__non_trivial_ifILb1ENS_9allocatorIdEEEC2B8ue170006Ev, symObjAddr: 0x59CC, symBinAddr: 0x10000CF44, symSize: 0x14 }
  - { offsetInCU: 0xBE20, offset: 0x177A1, size: 0x8, addend: 0x0, symName: __ZNSt3__16vectorIdNS_9allocatorIdEEED2B8ue170006Ev, symObjAddr: 0x59E0, symBinAddr: 0x10000CF58, symSize: 0x3C }
  - { offsetInCU: 0xBE4F, offset: 0x177D0, size: 0x8, addend: 0x0, symName: __ZNSt3__16vectorIdNS_9allocatorIdEEE22__construct_one_at_endB8ue170006IJdEEEvDpOT_, symObjAddr: 0x5A1C, symBinAddr: 0x10000CF94, symSize: 0x98 }
  - { offsetInCU: 0xBE9D, offset: 0x1781E, size: 0x8, addend: 0x0, symName: __ZNSt3__16vectorIdNS_9allocatorIdEEE21__push_back_slow_pathIdEEvOT_, symObjAddr: 0x5AB4, symBinAddr: 0x10000D02C, symSize: 0xE0 }
  - { offsetInCU: 0xBEFC, offset: 0x1787D, size: 0x8, addend: 0x0, symName: __ZNSt3__116allocator_traitsINS_9allocatorIdEEE9constructB8ue170006IdJdEvEEvRS2_PT_DpOT0_, symObjAddr: 0x5B94, symBinAddr: 0x10000D10C, symSize: 0x34 }
  - { offsetInCU: 0xBF53, offset: 0x178D4, size: 0x8, addend: 0x0, symName: __ZNSt3__19allocatorIdE9constructB8ue170006IdJdEEEvPT_DpOT0_, symObjAddr: 0x5BC8, symBinAddr: 0x10000D140, symSize: 0x28 }
  - { offsetInCU: 0xBFA9, offset: 0x1792A, size: 0x8, addend: 0x0, symName: __ZNSt3__114__split_bufferIdRNS_9allocatorIdEEEC1EmmS3_, symObjAddr: 0x5BF0, symBinAddr: 0x10000D168, symSize: 0x44 }
  - { offsetInCU: 0xBFFF, offset: 0x17980, size: 0x8, addend: 0x0, symName: __ZNSt3__114__split_bufferIdRNS_9allocatorIdEEED1Ev, symObjAddr: 0x5D44, symBinAddr: 0x10000D2BC, symSize: 0x2C }
  - { offsetInCU: 0xC02B, offset: 0x179AC, size: 0x8, addend: 0x0, symName: __ZNSt3__114__split_bufferIdRNS_9allocatorIdEEEC2EmmS3_, symObjAddr: 0x5D70, symBinAddr: 0x10000D2E8, symSize: 0xD4 }
  - { offsetInCU: 0xC09E, offset: 0x17A1F, size: 0x8, addend: 0x0, symName: __ZNSt3__117__compressed_pairIPdRNS_9allocatorIdEEEC1B8ue170006IDnS4_EEOT_OT0_, symObjAddr: 0x5E44, symBinAddr: 0x10000D3BC, symSize: 0x3C }
  - { offsetInCU: 0xC0F6, offset: 0x17A77, size: 0x8, addend: 0x0, symName: __ZNSt3__114__split_bufferIdRNS_9allocatorIdEEE7__allocB8ue170006Ev, symObjAddr: 0x5E80, symBinAddr: 0x10000D3F8, symSize: 0x28 }
  - { offsetInCU: 0xC11C, offset: 0x17A9D, size: 0x8, addend: 0x0, symName: __ZNSt3__114__split_bufferIdRNS_9allocatorIdEEE9__end_capB8ue170006Ev, symObjAddr: 0x5EA8, symBinAddr: 0x10000D420, symSize: 0x28 }
  - { offsetInCU: 0xC142, offset: 0x17AC3, size: 0x8, addend: 0x0, symName: __ZNSt3__117__compressed_pairIPdRNS_9allocatorIdEEEC2B8ue170006IDnS4_EEOT_OT0_, symObjAddr: 0x5ED0, symBinAddr: 0x10000D448, symSize: 0x48 }
  - { offsetInCU: 0xC19A, offset: 0x17B1B, size: 0x8, addend: 0x0, symName: __ZNSt3__122__compressed_pair_elemIRNS_9allocatorIdEELi1ELb0EEC2B8ue170006IS3_vEEOT_, symObjAddr: 0x5F18, symBinAddr: 0x10000D490, symSize: 0x20 }
  - { offsetInCU: 0xC1DC, offset: 0x17B5D, size: 0x8, addend: 0x0, symName: __ZNSt3__117__compressed_pairIPdRNS_9allocatorIdEEE6secondB8ue170006Ev, symObjAddr: 0x5F38, symBinAddr: 0x10000D4B0, symSize: 0x28 }
  - { offsetInCU: 0xC202, offset: 0x17B83, size: 0x8, addend: 0x0, symName: __ZNSt3__122__compressed_pair_elemIRNS_9allocatorIdEELi1ELb0EE5__getB8ue170006Ev, symObjAddr: 0x5F60, symBinAddr: 0x10000D4D8, symSize: 0x18 }
  - { offsetInCU: 0xC228, offset: 0x17BA9, size: 0x8, addend: 0x0, symName: __ZNSt3__117__compressed_pairIPdRNS_9allocatorIdEEE5firstB8ue170006Ev, symObjAddr: 0x5F78, symBinAddr: 0x10000D4F0, symSize: 0x24 }
  - { offsetInCU: 0xC271, offset: 0x17BF2, size: 0x8, addend: 0x0, symName: __ZNKSt3__111__move_loopINS_17_ClassicAlgPolicyEEclB8ue170006INS_16reverse_iteratorIPdEES6_S6_EENS_4pairIT_T1_EES8_T0_S9_, symObjAddr: 0x63DC, symBinAddr: 0x10000D954, symSize: 0xA0 }
  - { offsetInCU: 0xC2DC, offset: 0x17C5D, size: 0x8, addend: 0x0, symName: __ZNSt3__18_IterOpsINS_17_ClassicAlgPolicyEE11__iter_moveB8ue170006IRNS_16reverse_iteratorIPdEEEENS_9enable_ifIXsr12is_referenceIDTdeclsr3stdE7declvalIRT_EEEEE5valueEDTclsr3stdE4movedeclsr3stdE7declvalISA_EEEEE4typeEOS9_, symObjAddr: 0x65DC, symBinAddr: 0x10000DB54, symSize: 0x28 }
  - { offsetInCU: 0xC308, offset: 0x17C89, size: 0x8, addend: 0x0, symName: __ZNSt3__18_IterOpsINS_17_ClassicAlgPolicyEE25__validate_iter_referenceB8ue170006IRNS_16reverse_iteratorIPdEEEEvv, symObjAddr: 0x6604, symBinAddr: 0x10000DB7C, symSize: 0x4 }
  - { offsetInCU: 0xC326, offset: 0x17CA7, size: 0x8, addend: 0x0, symName: __ZNSt3__118__unwrap_iter_implINS_16reverse_iteratorIPdEELb0EE8__unwrapB8ue170006ES3_, symObjAddr: 0x6608, symBinAddr: 0x10000DB80, symSize: 0x24 }
  - { offsetInCU: 0xC349, offset: 0x17CCA, size: 0x8, addend: 0x0, symName: __ZNSt3__14pairINS_16reverse_iteratorIPdEES3_EC1B8ue170006ERKS3_S6_, symObjAddr: 0x662C, symBinAddr: 0x10000DBA4, symSize: 0x3C }
  - { offsetInCU: 0xC38F, offset: 0x17D10, size: 0x8, addend: 0x0, symName: __ZNSt3__14pairINS_16reverse_iteratorIPdEES3_EC2B8ue170006ERKS3_S6_, symObjAddr: 0x6668, symBinAddr: 0x10000DBE0, symSize: 0x34 }
  - { offsetInCU: 0xC3D5, offset: 0x17D56, size: 0x8, addend: 0x0, symName: __ZNSt3__118__unwrap_iter_implINS_16reverse_iteratorIPdEELb0EE8__rewrapB8ue170006ES3_S3_, symObjAddr: 0x669C, symBinAddr: 0x10000DC14, symSize: 0x2C }
  - { offsetInCU: 0xC403, offset: 0x17D84, size: 0x8, addend: 0x0, symName: __ZNSt3__114__split_bufferIdRNS_9allocatorIdEEED2Ev, symObjAddr: 0x66C8, symBinAddr: 0x10000DC40, symSize: 0x80 }
  - { offsetInCU: 0xC42F, offset: 0x17DB0, size: 0x8, addend: 0x0, symName: __ZNSt3__114__split_bufferIdRNS_9allocatorIdEEE5clearB8ue170006Ev, symObjAddr: 0x6748, symBinAddr: 0x10000DCC0, symSize: 0x28 }
  - { offsetInCU: 0xC455, offset: 0x17DD6, size: 0x8, addend: 0x0, symName: __ZNKSt3__114__split_bufferIdRNS_9allocatorIdEEE8capacityB8ue170006Ev, symObjAddr: 0x6770, symBinAddr: 0x10000DCE8, symSize: 0x40 }
  - { offsetInCU: 0xC47B, offset: 0x17DFC, size: 0x8, addend: 0x0, symName: __ZNSt3__114__split_bufferIdRNS_9allocatorIdEEE17__destruct_at_endB8ue170006EPd, symObjAddr: 0x67B0, symBinAddr: 0x10000DD28, symSize: 0x2C }
  - { offsetInCU: 0xC4AE, offset: 0x17E2F, size: 0x8, addend: 0x0, symName: __ZNSt3__114__split_bufferIdRNS_9allocatorIdEEE17__destruct_at_endB8ue170006EPdNS_17integral_constantIbLb0EEE, symObjAddr: 0x67DC, symBinAddr: 0x10000DD54, symSize: 0x94 }
  - { offsetInCU: 0xC4F0, offset: 0x17E71, size: 0x8, addend: 0x0, symName: __ZNKSt3__114__split_bufferIdRNS_9allocatorIdEEE9__end_capB8ue170006Ev, symObjAddr: 0x6870, symBinAddr: 0x10000DDE8, symSize: 0x28 }
  - { offsetInCU: 0xC516, offset: 0x17E97, size: 0x8, addend: 0x0, symName: __ZNKSt3__117__compressed_pairIPdRNS_9allocatorIdEEE5firstB8ue170006Ev, symObjAddr: 0x6898, symBinAddr: 0x10000DE10, symSize: 0x24 }
  - { offsetInCU: 0xC53C, offset: 0x17EBD, size: 0x8, addend: 0x0, symName: __ZNSt3__16vectorINS0_IdNS_9allocatorIdEEEENS1_IS3_EEE22__construct_one_at_endB8ue170006IJRKS3_EEEvDpOT_, symObjAddr: 0x68BC, symBinAddr: 0x10000DE34, symSize: 0x98 }
  - { offsetInCU: 0xC58A, offset: 0x17F0B, size: 0x8, addend: 0x0, symName: __ZNSt3__16vectorINS0_IdNS_9allocatorIdEEEENS1_IS3_EEE21__push_back_slow_pathIRKS3_EEvOT_, symObjAddr: 0x6954, symBinAddr: 0x10000DECC, symSize: 0xE0 }
  - { offsetInCU: 0xC5E9, offset: 0x17F6A, size: 0x8, addend: 0x0, symName: __ZNSt3__116allocator_traitsINS_9allocatorINS_6vectorIdNS1_IdEEEEEEE9constructB8ue170006IS4_JRKS4_EvEEvRS5_PT_DpOT0_, symObjAddr: 0x6A34, symBinAddr: 0x10000DFAC, symSize: 0x34 }
  - { offsetInCU: 0xC640, offset: 0x17FC1, size: 0x8, addend: 0x0, symName: __ZNSt3__19allocatorINS_6vectorIdNS0_IdEEEEE9constructB8ue170006IS3_JRKS3_EEEvPT_DpOT0_, symObjAddr: 0x6A68, symBinAddr: 0x10000DFE0, symSize: 0x30 }
  - { offsetInCU: 0xC696, offset: 0x18017, size: 0x8, addend: 0x0, symName: __ZNSt3__114__split_bufferINS_6vectorIdNS_9allocatorIdEEEERNS2_IS4_EEEC1EmmS6_, symObjAddr: 0x6A98, symBinAddr: 0x10000E010, symSize: 0x44 }
  - { offsetInCU: 0xC6EC, offset: 0x1806D, size: 0x8, addend: 0x0, symName: __ZNSt3__114__split_bufferINS_6vectorIdNS_9allocatorIdEEEERNS2_IS4_EEED1Ev, symObjAddr: 0x6BEC, symBinAddr: 0x10000E164, symSize: 0x2C }
  - { offsetInCU: 0xC718, offset: 0x18099, size: 0x8, addend: 0x0, symName: __ZNSt3__114__split_bufferINS_6vectorIdNS_9allocatorIdEEEERNS2_IS4_EEEC2EmmS6_, symObjAddr: 0x6C18, symBinAddr: 0x10000E190, symSize: 0xE0 }
  - { offsetInCU: 0xC78B, offset: 0x1810C, size: 0x8, addend: 0x0, symName: __ZNSt3__117__compressed_pairIPNS_6vectorIdNS_9allocatorIdEEEERNS2_IS4_EEEC1B8ue170006IDnS7_EEOT_OT0_, symObjAddr: 0x6CF8, symBinAddr: 0x10000E270, symSize: 0x3C }
  - { offsetInCU: 0xC7E3, offset: 0x18164, size: 0x8, addend: 0x0, symName: __ZNSt3__114__split_bufferINS_6vectorIdNS_9allocatorIdEEEERNS2_IS4_EEE7__allocB8ue170006Ev, symObjAddr: 0x6D34, symBinAddr: 0x10000E2AC, symSize: 0x28 }
  - { offsetInCU: 0xC809, offset: 0x1818A, size: 0x8, addend: 0x0, symName: __ZNSt3__114__split_bufferINS_6vectorIdNS_9allocatorIdEEEERNS2_IS4_EEE9__end_capB8ue170006Ev, symObjAddr: 0x6D5C, symBinAddr: 0x10000E2D4, symSize: 0x28 }
  - { offsetInCU: 0xC82F, offset: 0x181B0, size: 0x8, addend: 0x0, symName: __ZNSt3__117__compressed_pairIPNS_6vectorIdNS_9allocatorIdEEEERNS2_IS4_EEEC2B8ue170006IDnS7_EEOT_OT0_, symObjAddr: 0x6D84, symBinAddr: 0x10000E2FC, symSize: 0x48 }
  - { offsetInCU: 0xC887, offset: 0x18208, size: 0x8, addend: 0x0, symName: __ZNSt3__122__compressed_pair_elemIRNS_9allocatorINS_6vectorIdNS1_IdEEEEEELi1ELb0EEC2B8ue170006IS6_vEEOT_, symObjAddr: 0x6DCC, symBinAddr: 0x10000E344, symSize: 0x20 }
  - { offsetInCU: 0xC8C9, offset: 0x1824A, size: 0x8, addend: 0x0, symName: __ZNSt3__117__compressed_pairIPNS_6vectorIdNS_9allocatorIdEEEERNS2_IS4_EEE6secondB8ue170006Ev, symObjAddr: 0x6DEC, symBinAddr: 0x10000E364, symSize: 0x28 }
  - { offsetInCU: 0xC8EF, offset: 0x18270, size: 0x8, addend: 0x0, symName: __ZNSt3__122__compressed_pair_elemIRNS_9allocatorINS_6vectorIdNS1_IdEEEEEELi1ELb0EE5__getB8ue170006Ev, symObjAddr: 0x6E14, symBinAddr: 0x10000E38C, symSize: 0x18 }
  - { offsetInCU: 0xC915, offset: 0x18296, size: 0x8, addend: 0x0, symName: __ZNSt3__117__compressed_pairIPNS_6vectorIdNS_9allocatorIdEEEERNS2_IS4_EEE5firstB8ue170006Ev, symObjAddr: 0x6E2C, symBinAddr: 0x10000E3A4, symSize: 0x24 }
  - { offsetInCU: 0xC93B, offset: 0x182BC, size: 0x8, addend: 0x0, symName: __ZNSt3__129_AllocatorDestroyRangeReverseINS_9allocatorINS_6vectorIdNS1_IdEEEEEENS_16reverse_iteratorIPS4_EEEC1B8ue170006ERS5_RS8_SB_, symObjAddr: 0x6FFC, symBinAddr: 0x10000E574, symSize: 0x44 }
  - { offsetInCU: 0xC992, offset: 0x18313, size: 0x8, addend: 0x0, symName: __ZNSt3__128__exception_guard_exceptionsINS_29_AllocatorDestroyRangeReverseINS_9allocatorINS_6vectorIdNS2_IdEEEEEENS_16reverse_iteratorIPS5_EEEEE10__completeB8ue170006Ev, symObjAddr: 0x7040, symBinAddr: 0x10000E5B8, symSize: 0x1C }
  - { offsetInCU: 0xC9B8, offset: 0x18339, size: 0x8, addend: 0x0, symName: __ZNSt3__128__exception_guard_exceptionsINS_29_AllocatorDestroyRangeReverseINS_9allocatorINS_6vectorIdNS2_IdEEEEEENS_16reverse_iteratorIPS5_EEEEED1B8ue170006Ev, symObjAddr: 0x705C, symBinAddr: 0x10000E5D4, symSize: 0x2C }
  - { offsetInCU: 0xC9E2, offset: 0x18363, size: 0x8, addend: 0x0, symName: __ZNSt3__128__exception_guard_exceptionsINS_29_AllocatorDestroyRangeReverseINS_9allocatorINS_6vectorIdNS2_IdEEEEEENS_16reverse_iteratorIPS5_EEEEEC1B8ue170006ESA_, symObjAddr: 0x7088, symBinAddr: 0x10000E600, symSize: 0x34 }
  - { offsetInCU: 0xCA1B, offset: 0x1839C, size: 0x8, addend: 0x0, symName: __ZNSt3__128__exception_guard_exceptionsINS_29_AllocatorDestroyRangeReverseINS_9allocatorINS_6vectorIdNS2_IdEEEEEENS_16reverse_iteratorIPS5_EEEEEC2B8ue170006ESA_, symObjAddr: 0x70BC, symBinAddr: 0x10000E634, symSize: 0x30 }
  - { offsetInCU: 0xCA54, offset: 0x183D5, size: 0x8, addend: 0x0, symName: __ZNSt3__129_AllocatorDestroyRangeReverseINS_9allocatorINS_6vectorIdNS1_IdEEEEEENS_16reverse_iteratorIPS4_EEEC2B8ue170006ERS5_RS8_SB_, symObjAddr: 0x70EC, symBinAddr: 0x10000E664, symSize: 0x38 }
  - { offsetInCU: 0xCAAB, offset: 0x1842C, size: 0x8, addend: 0x0, symName: __ZNSt3__128__exception_guard_exceptionsINS_29_AllocatorDestroyRangeReverseINS_9allocatorINS_6vectorIdNS2_IdEEEEEENS_16reverse_iteratorIPS5_EEEEED2B8ue170006Ev, symObjAddr: 0x7124, symBinAddr: 0x10000E69C, symSize: 0x48 }
  - { offsetInCU: 0xCAD5, offset: 0x18456, size: 0x8, addend: 0x0, symName: __ZNKSt3__129_AllocatorDestroyRangeReverseINS_9allocatorINS_6vectorIdNS1_IdEEEEEENS_16reverse_iteratorIPS4_EEEclB8ue170006Ev, symObjAddr: 0x716C, symBinAddr: 0x10000E6E4, symSize: 0xB4 }
  - { offsetInCU: 0xCAFC, offset: 0x1847D, size: 0x8, addend: 0x0, symName: __ZNSt3__116reverse_iteratorINS0_IPNS_6vectorIdNS_9allocatorIdEEEEEEEC1B8ue170006ES6_, symObjAddr: 0x7290, symBinAddr: 0x10000E808, symSize: 0x3C }
  - { offsetInCU: 0xCB34, offset: 0x184B5, size: 0x8, addend: 0x0, symName: __ZNSt3__116reverse_iteratorINS0_IPNS_6vectorIdNS_9allocatorIdEEEEEEEppB8ue170006Ev, symObjAddr: 0x7350, symBinAddr: 0x10000E8C8, symSize: 0x30 }
  - { offsetInCU: 0xCB5A, offset: 0x184DB, size: 0x8, addend: 0x0, symName: __ZNKSt3__116reverse_iteratorINS0_IPNS_6vectorIdNS_9allocatorIdEEEEEEE4baseB8ue170006Ev, symObjAddr: 0x7380, symBinAddr: 0x10000E8F8, symSize: 0x24 }
  - { offsetInCU: 0xCB85, offset: 0x18506, size: 0x8, addend: 0x0, symName: __ZNSt3__119__to_address_helperINS_16reverse_iteratorINS1_IPNS_6vectorIdNS_9allocatorIdEEEEEEEEvE6__callB8ue170006ERKS8_, symObjAddr: 0x73A4, symBinAddr: 0x10000E91C, symSize: 0x4C }
  - { offsetInCU: 0xCBA8, offset: 0x18529, size: 0x8, addend: 0x0, symName: __ZNKSt3__116reverse_iteratorINS0_IPNS_6vectorIdNS_9allocatorIdEEEEEEEptB8ue170006Ev, symObjAddr: 0x73F0, symBinAddr: 0x10000E968, symSize: 0x24 }
  - { offsetInCU: 0xCBCE, offset: 0x1854F, size: 0x8, addend: 0x0, symName: __ZNKSt3__116reverse_iteratorINS0_IPNS_6vectorIdNS_9allocatorIdEEEEEEEdeB8ue170006Ev, symObjAddr: 0x7414, symBinAddr: 0x10000E98C, symSize: 0x34 }
  - { offsetInCU: 0xCC02, offset: 0x18583, size: 0x8, addend: 0x0, symName: __ZNSt3__116reverse_iteratorIPNS_6vectorIdNS_9allocatorIdEEEEEmmB8ue170006Ev, symObjAddr: 0x7448, symBinAddr: 0x10000E9C0, symSize: 0x20 }
  - { offsetInCU: 0xCC28, offset: 0x185A9, size: 0x8, addend: 0x0, symName: __ZNSt3__116reverse_iteratorINS0_IPNS_6vectorIdNS_9allocatorIdEEEEEEEC2B8ue170006ES6_, symObjAddr: 0x7468, symBinAddr: 0x10000E9E0, symSize: 0x2C }
  - { offsetInCU: 0xCC60, offset: 0x185E1, size: 0x8, addend: 0x0, symName: __ZNSt3__114__split_bufferINS_6vectorIdNS_9allocatorIdEEEERNS2_IS4_EEED2Ev, symObjAddr: 0x7494, symBinAddr: 0x10000EA0C, symSize: 0x80 }
  - { offsetInCU: 0xCC8C, offset: 0x1860D, size: 0x8, addend: 0x0, symName: __ZNSt3__114__split_bufferINS_6vectorIdNS_9allocatorIdEEEERNS2_IS4_EEE5clearB8ue170006Ev, symObjAddr: 0x7514, symBinAddr: 0x10000EA8C, symSize: 0x28 }
  - { offsetInCU: 0xCCB2, offset: 0x18633, size: 0x8, addend: 0x0, symName: __ZNKSt3__114__split_bufferINS_6vectorIdNS_9allocatorIdEEEERNS2_IS4_EEE8capacityB8ue170006Ev, symObjAddr: 0x753C, symBinAddr: 0x10000EAB4, symSize: 0x40 }
  - { offsetInCU: 0xCCD8, offset: 0x18659, size: 0x8, addend: 0x0, symName: __ZNSt3__114__split_bufferINS_6vectorIdNS_9allocatorIdEEEERNS2_IS4_EEE17__destruct_at_endB8ue170006EPS4_, symObjAddr: 0x757C, symBinAddr: 0x10000EAF4, symSize: 0x2C }
  - { offsetInCU: 0xCD0B, offset: 0x1868C, size: 0x8, addend: 0x0, symName: __ZNSt3__114__split_bufferINS_6vectorIdNS_9allocatorIdEEEERNS2_IS4_EEE17__destruct_at_endB8ue170006EPS4_NS_17integral_constantIbLb0EEE, symObjAddr: 0x75A8, symBinAddr: 0x10000EB20, symSize: 0x94 }
  - { offsetInCU: 0xCD4D, offset: 0x186CE, size: 0x8, addend: 0x0, symName: __ZNKSt3__114__split_bufferINS_6vectorIdNS_9allocatorIdEEEERNS2_IS4_EEE9__end_capB8ue170006Ev, symObjAddr: 0x763C, symBinAddr: 0x10000EBB4, symSize: 0x28 }
  - { offsetInCU: 0xCD73, offset: 0x186F4, size: 0x8, addend: 0x0, symName: __ZNKSt3__117__compressed_pairIPNS_6vectorIdNS_9allocatorIdEEEERNS2_IS4_EEE5firstB8ue170006Ev, symObjAddr: 0x7664, symBinAddr: 0x10000EBDC, symSize: 0x24 }
  - { offsetInCU: 0xCD99, offset: 0x1871A, size: 0x8, addend: 0x0, symName: __ZNSt3__16vectorINS0_IdNS_9allocatorIdEEEENS1_IS3_EEEC2B8ue170006EOS5_, symObjAddr: 0x7688, symBinAddr: 0x10000EC00, symSize: 0xBC }
  - { offsetInCU: 0xCDD4, offset: 0x18755, size: 0x8, addend: 0x0, symName: __ZNSt3__16vectorIdNS_9allocatorIdEEE22__construct_one_at_endB8ue170006IJRKdEEEvDpOT_, symObjAddr: 0x7744, symBinAddr: 0x10000ECBC, symSize: 0x98 }
  - { offsetInCU: 0xCE22, offset: 0x187A3, size: 0x8, addend: 0x0, symName: __ZNSt3__16vectorIdNS_9allocatorIdEEE21__push_back_slow_pathIRKdEEvOT_, symObjAddr: 0x77DC, symBinAddr: 0x10000ED54, symSize: 0xE0 }
  - { offsetInCU: 0xCE81, offset: 0x18802, size: 0x8, addend: 0x0, symName: __ZNSt3__116allocator_traitsINS_9allocatorIdEEE9constructB8ue170006IdJRKdEvEEvRS2_PT_DpOT0_, symObjAddr: 0x78BC, symBinAddr: 0x10000EE34, symSize: 0x34 }
  - { offsetInCU: 0xCED8, offset: 0x18859, size: 0x8, addend: 0x0, symName: __ZNSt3__19allocatorIdE9constructB8ue170006IdJRKdEEEvPT_DpOT0_, symObjAddr: 0x78F0, symBinAddr: 0x10000EE68, symSize: 0x28 }
  - { offsetInCU: 0xCF2D, offset: 0x188AE, size: 0x8, addend: 0x0, symName: __ZNSt3__16vectorINS0_IdNS_9allocatorIdEEEENS1_IS3_EEE13__move_assignERS5_NS_17integral_constantIbLb1EEE, symObjAddr: 0x7918, symBinAddr: 0x10000EE90, symSize: 0x94 }
  - { offsetInCU: 0xCF71, offset: 0x188F2, size: 0x8, addend: 0x0, symName: __ZNSt3__16vectorINS0_IdNS_9allocatorIdEEEENS1_IS3_EEE19__move_assign_allocB8ue170006ERS5_, symObjAddr: 0x79AC, symBinAddr: 0x10000EF24, symSize: 0x2C }
  - { offsetInCU: 0xCFA6, offset: 0x18927, size: 0x8, addend: 0x0, symName: __ZNSt3__16vectorINS0_IdNS_9allocatorIdEEEENS1_IS3_EEE19__move_assign_allocB8ue170006ERS5_NS_17integral_constantIbLb1EEE, symObjAddr: 0x79D8, symBinAddr: 0x10000EF50, symSize: 0x38 }
...
